ccopy_reg
_reconstructor
p0
(csrc.level
Level
p1
c__builtin__
object
p2
Ntp3
Rp4
(dp5
S'h'
p6
I50
sS'tiles'
p7
(lp8
g0
(csrc.entities.stonewall
StoneWall
p9
g2
Ntp10
Rp11
(dp12
S'y'
p13
I0
sS'x'
p14
I0
sbag0
(g9
g2
Ntp15
Rp16
(dp17
g13
I1
sg14
I0
sbag0
(g9
g2
Ntp18
Rp19
(dp20
g13
I2
sg14
I0
sbag0
(g9
g2
Ntp21
Rp22
(dp23
g13
I3
sg14
I0
sbag0
(g9
g2
Ntp24
Rp25
(dp26
g13
I4
sg14
I0
sbag0
(g9
g2
Ntp27
Rp28
(dp29
g13
I5
sg14
I0
sbag0
(g9
g2
Ntp30
Rp31
(dp32
g13
I6
sg14
I0
sbag0
(g9
g2
Ntp33
Rp34
(dp35
g13
I7
sg14
I0
sbag0
(g9
g2
Ntp36
Rp37
(dp38
g13
I8
sg14
I0
sbag0
(g9
g2
Ntp39
Rp40
(dp41
g13
I9
sg14
I0
sbag0
(g9
g2
Ntp42
Rp43
(dp44
g13
I10
sg14
I0
sbag0
(g9
g2
Ntp45
Rp46
(dp47
g13
I11
sg14
I0
sbag0
(g9
g2
Ntp48
Rp49
(dp50
g13
I12
sg14
I0
sbag0
(g9
g2
Ntp51
Rp52
(dp53
g13
I13
sg14
I0
sbag0
(g9
g2
Ntp54
Rp55
(dp56
g13
I14
sg14
I0
sbag0
(g9
g2
Ntp57
Rp58
(dp59
g13
I15
sg14
I0
sbag0
(g9
g2
Ntp60
Rp61
(dp62
g13
I16
sg14
I0
sbag0
(g9
g2
Ntp63
Rp64
(dp65
g13
I17
sg14
I0
sbag0
(g9
g2
Ntp66
Rp67
(dp68
g13
I18
sg14
I0
sbag0
(g9
g2
Ntp69
Rp70
(dp71
g13
I19
sg14
I0
sbag0
(g9
g2
Ntp72
Rp73
(dp74
g13
I20
sg14
I0
sbag0
(g9
g2
Ntp75
Rp76
(dp77
g13
I21
sg14
I0
sbag0
(g9
g2
Ntp78
Rp79
(dp80
g13
I22
sg14
I0
sbag0
(g9
g2
Ntp81
Rp82
(dp83
g13
I23
sg14
I0
sbag0
(g9
g2
Ntp84
Rp85
(dp86
g13
I24
sg14
I0
sbag0
(g9
g2
Ntp87
Rp88
(dp89
g13
I25
sg14
I0
sbag0
(g9
g2
Ntp90
Rp91
(dp92
g13
I26
sg14
I0
sbag0
(g9
g2
Ntp93
Rp94
(dp95
g13
I27
sg14
I0
sbag0
(g9
g2
Ntp96
Rp97
(dp98
g13
I28
sg14
I0
sbag0
(g9
g2
Ntp99
Rp100
(dp101
g13
I29
sg14
I0
sbag0
(g9
g2
Ntp102
Rp103
(dp104
g13
I30
sg14
I0
sbag0
(g9
g2
Ntp105
Rp106
(dp107
g13
I31
sg14
I0
sbag0
(g9
g2
Ntp108
Rp109
(dp110
g13
I32
sg14
I0
sbag0
(g9
g2
Ntp111
Rp112
(dp113
g13
I33
sg14
I0
sbag0
(g9
g2
Ntp114
Rp115
(dp116
g13
I34
sg14
I0
sbag0
(g9
g2
Ntp117
Rp118
(dp119
g13
I35
sg14
I0
sbag0
(g9
g2
Ntp120
Rp121
(dp122
g13
I36
sg14
I0
sbag0
(g9
g2
Ntp123
Rp124
(dp125
g13
I37
sg14
I0
sbag0
(g9
g2
Ntp126
Rp127
(dp128
g13
I38
sg14
I0
sbag0
(g9
g2
Ntp129
Rp130
(dp131
g13
I39
sg14
I0
sbag0
(g9
g2
Ntp132
Rp133
(dp134
g13
I40
sg14
I0
sbag0
(g9
g2
Ntp135
Rp136
(dp137
g13
I41
sg14
I0
sbag0
(g9
g2
Ntp138
Rp139
(dp140
g13
I42
sg14
I0
sbag0
(g9
g2
Ntp141
Rp142
(dp143
g13
I43
sg14
I0
sbag0
(g9
g2
Ntp144
Rp145
(dp146
g13
I44
sg14
I0
sbag0
(g9
g2
Ntp147
Rp148
(dp149
g13
I45
sg14
I0
sbag0
(g9
g2
Ntp150
Rp151
(dp152
g13
I46
sg14
I0
sbag0
(g9
g2
Ntp153
Rp154
(dp155
g13
I47
sg14
I0
sbag0
(g9
g2
Ntp156
Rp157
(dp158
g13
I48
sg14
I0
sbag0
(g9
g2
Ntp159
Rp160
(dp161
g13
I49
sg14
I0
sbag0
(g9
g2
Ntp162
Rp163
(dp164
g13
I0
sg14
I1
sbag0
(g9
g2
Ntp165
Rp166
(dp167
g13
I1
sg14
I1
sbag0
(g9
g2
Ntp168
Rp169
(dp170
g13
I2
sg14
I1
sbag0
(g9
g2
Ntp171
Rp172
(dp173
g13
I3
sg14
I1
sbag0
(g9
g2
Ntp174
Rp175
(dp176
g13
I4
sg14
I1
sbag0
(g9
g2
Ntp177
Rp178
(dp179
g13
I5
sg14
I1
sbag0
(g9
g2
Ntp180
Rp181
(dp182
g13
I6
sg14
I1
sbag0
(g9
g2
Ntp183
Rp184
(dp185
g13
I7
sg14
I1
sbag0
(g9
g2
Ntp186
Rp187
(dp188
g13
I8
sg14
I1
sbag0
(g9
g2
Ntp189
Rp190
(dp191
g13
I9
sg14
I1
sbag0
(g9
g2
Ntp192
Rp193
(dp194
g13
I10
sg14
I1
sbag0
(g9
g2
Ntp195
Rp196
(dp197
g13
I11
sg14
I1
sbag0
(g9
g2
Ntp198
Rp199
(dp200
g13
I12
sg14
I1
sbag0
(g9
g2
Ntp201
Rp202
(dp203
g13
I13
sg14
I1
sbag0
(g9
g2
Ntp204
Rp205
(dp206
g13
I14
sg14
I1
sbag0
(g9
g2
Ntp207
Rp208
(dp209
g13
I15
sg14
I1
sbag0
(g9
g2
Ntp210
Rp211
(dp212
g13
I16
sg14
I1
sbag0
(g9
g2
Ntp213
Rp214
(dp215
g13
I17
sg14
I1
sbag0
(g9
g2
Ntp216
Rp217
(dp218
g13
I18
sg14
I1
sbag0
(g9
g2
Ntp219
Rp220
(dp221
g13
I19
sg14
I1
sbag0
(g9
g2
Ntp222
Rp223
(dp224
g13
I20
sg14
I1
sbag0
(g9
g2
Ntp225
Rp226
(dp227
g13
I21
sg14
I1
sbag0
(g9
g2
Ntp228
Rp229
(dp230
g13
I22
sg14
I1
sbag0
(g9
g2
Ntp231
Rp232
(dp233
g13
I23
sg14
I1
sbag0
(g9
g2
Ntp234
Rp235
(dp236
g13
I24
sg14
I1
sbag0
(g9
g2
Ntp237
Rp238
(dp239
g13
I25
sg14
I1
sbag0
(g9
g2
Ntp240
Rp241
(dp242
g13
I26
sg14
I1
sbag0
(g9
g2
Ntp243
Rp244
(dp245
g13
I27
sg14
I1
sbag0
(g9
g2
Ntp246
Rp247
(dp248
g13
I28
sg14
I1
sbag0
(g9
g2
Ntp249
Rp250
(dp251
g13
I29
sg14
I1
sbag0
(g9
g2
Ntp252
Rp253
(dp254
g13
I30
sg14
I1
sbag0
(g9
g2
Ntp255
Rp256
(dp257
g13
I31
sg14
I1
sbag0
(g9
g2
Ntp258
Rp259
(dp260
g13
I32
sg14
I1
sbag0
(g9
g2
Ntp261
Rp262
(dp263
g13
I33
sg14
I1
sbag0
(g9
g2
Ntp264
Rp265
(dp266
g13
I34
sg14
I1
sbag0
(g9
g2
Ntp267
Rp268
(dp269
g13
I35
sg14
I1
sbag0
(g9
g2
Ntp270
Rp271
(dp272
g13
I36
sg14
I1
sbag0
(g9
g2
Ntp273
Rp274
(dp275
g13
I37
sg14
I1
sbag0
(g9
g2
Ntp276
Rp277
(dp278
g13
I38
sg14
I1
sbag0
(g9
g2
Ntp279
Rp280
(dp281
g13
I39
sg14
I1
sbag0
(g9
g2
Ntp282
Rp283
(dp284
g13
I40
sg14
I1
sbag0
(g9
g2
Ntp285
Rp286
(dp287
g13
I41
sg14
I1
sbag0
(g9
g2
Ntp288
Rp289
(dp290
g13
I42
sg14
I1
sbag0
(g9
g2
Ntp291
Rp292
(dp293
g13
I43
sg14
I1
sbag0
(g9
g2
Ntp294
Rp295
(dp296
g13
I44
sg14
I1
sbag0
(g9
g2
Ntp297
Rp298
(dp299
g13
I45
sg14
I1
sbag0
(g9
g2
Ntp300
Rp301
(dp302
g13
I46
sg14
I1
sbag0
(g9
g2
Ntp303
Rp304
(dp305
g13
I47
sg14
I1
sbag0
(g9
g2
Ntp306
Rp307
(dp308
g13
I48
sg14
I1
sbag0
(g9
g2
Ntp309
Rp310
(dp311
g13
I49
sg14
I1
sbag0
(g9
g2
Ntp312
Rp313
(dp314
g13
I0
sg14
I2
sbag0
(g9
g2
Ntp315
Rp316
(dp317
g13
I1
sg14
I2
sbag0
(g9
g2
Ntp318
Rp319
(dp320
g13
I48
sg14
I2
sbag0
(g9
g2
Ntp321
Rp322
(dp323
g13
I49
sg14
I2
sbag0
(g9
g2
Ntp324
Rp325
(dp326
g13
I0
sg14
I3
sbag0
(g9
g2
Ntp327
Rp328
(dp329
g13
I1
sg14
I3
sbag0
(g9
g2
Ntp330
Rp331
(dp332
g13
I48
sg14
I3
sbag0
(g9
g2
Ntp333
Rp334
(dp335
g13
I49
sg14
I3
sbag0
(g9
g2
Ntp336
Rp337
(dp338
g13
I0
sg14
I4
sbag0
(g9
g2
Ntp339
Rp340
(dp341
g13
I1
sg14
I4
sbag0
(g9
g2
Ntp342
Rp343
(dp344
g13
I48
sg14
I4
sbag0
(g9
g2
Ntp345
Rp346
(dp347
g13
I49
sg14
I4
sbag0
(g9
g2
Ntp348
Rp349
(dp350
g13
I0
sg14
I5
sbag0
(g9
g2
Ntp351
Rp352
(dp353
g13
I1
sg14
I5
sbag0
(g9
g2
Ntp354
Rp355
(dp356
g13
I48
sg14
I5
sbag0
(g9
g2
Ntp357
Rp358
(dp359
g13
I49
sg14
I5
sbag0
(g9
g2
Ntp360
Rp361
(dp362
g13
I0
sg14
I6
sbag0
(g9
g2
Ntp363
Rp364
(dp365
g13
I1
sg14
I6
sbag0
(g9
g2
Ntp366
Rp367
(dp368
g13
I48
sg14
I6
sbag0
(g9
g2
Ntp369
Rp370
(dp371
g13
I49
sg14
I6
sbag0
(g9
g2
Ntp372
Rp373
(dp374
g13
I0
sg14
I7
sbag0
(g9
g2
Ntp375
Rp376
(dp377
g13
I1
sg14
I7
sbag0
(g9
g2
Ntp378
Rp379
(dp380
g13
I48
sg14
I7
sbag0
(g9
g2
Ntp381
Rp382
(dp383
g13
I49
sg14
I7
sbag0
(g9
g2
Ntp384
Rp385
(dp386
g13
I0
sg14
I8
sbag0
(g9
g2
Ntp387
Rp388
(dp389
g13
I1
sg14
I8
sbag0
(g9
g2
Ntp390
Rp391
(dp392
g13
I48
sg14
I8
sbag0
(g9
g2
Ntp393
Rp394
(dp395
g13
I49
sg14
I8
sbag0
(g9
g2
Ntp396
Rp397
(dp398
g13
I0
sg14
I9
sbag0
(g9
g2
Ntp399
Rp400
(dp401
g13
I1
sg14
I9
sbag0
(g9
g2
Ntp402
Rp403
(dp404
g13
I48
sg14
I9
sbag0
(g9
g2
Ntp405
Rp406
(dp407
g13
I49
sg14
I9
sbag0
(g9
g2
Ntp408
Rp409
(dp410
g13
I0
sg14
I10
sbag0
(g9
g2
Ntp411
Rp412
(dp413
g13
I1
sg14
I10
sbag0
(g9
g2
Ntp414
Rp415
(dp416
g13
I48
sg14
I10
sbag0
(g9
g2
Ntp417
Rp418
(dp419
g13
I49
sg14
I10
sbag0
(g9
g2
Ntp420
Rp421
(dp422
g13
I0
sg14
I11
sbag0
(g9
g2
Ntp423
Rp424
(dp425
g13
I1
sg14
I11
sbag0
(g9
g2
Ntp426
Rp427
(dp428
g13
I48
sg14
I11
sbag0
(g9
g2
Ntp429
Rp430
(dp431
g13
I49
sg14
I11
sbag0
(g9
g2
Ntp432
Rp433
(dp434
g13
I0
sg14
I12
sbag0
(g9
g2
Ntp435
Rp436
(dp437
g13
I1
sg14
I12
sbag0
(g9
g2
Ntp438
Rp439
(dp440
g13
I48
sg14
I12
sbag0
(g9
g2
Ntp441
Rp442
(dp443
g13
I49
sg14
I12
sbag0
(g9
g2
Ntp444
Rp445
(dp446
g13
I0
sg14
I13
sbag0
(g9
g2
Ntp447
Rp448
(dp449
g13
I1
sg14
I13
sbag0
(g9
g2
Ntp450
Rp451
(dp452
g13
I48
sg14
I13
sbag0
(g9
g2
Ntp453
Rp454
(dp455
g13
I49
sg14
I13
sbag0
(g9
g2
Ntp456
Rp457
(dp458
g13
I0
sg14
I14
sbag0
(g9
g2
Ntp459
Rp460
(dp461
g13
I1
sg14
I14
sbag0
(g9
g2
Ntp462
Rp463
(dp464
g13
I48
sg14
I14
sbag0
(g9
g2
Ntp465
Rp466
(dp467
g13
I49
sg14
I14
sbag0
(g9
g2
Ntp468
Rp469
(dp470
g13
I0
sg14
I15
sbag0
(g9
g2
Ntp471
Rp472
(dp473
g13
I1
sg14
I15
sbag0
(g9
g2
Ntp474
Rp475
(dp476
g13
I48
sg14
I15
sbag0
(g9
g2
Ntp477
Rp478
(dp479
g13
I49
sg14
I15
sbag0
(g9
g2
Ntp480
Rp481
(dp482
g13
I0
sg14
I16
sbag0
(g9
g2
Ntp483
Rp484
(dp485
g13
I1
sg14
I16
sbag0
(g9
g2
Ntp486
Rp487
(dp488
g13
I48
sg14
I16
sbag0
(g9
g2
Ntp489
Rp490
(dp491
g13
I49
sg14
I16
sbag0
(g9
g2
Ntp492
Rp493
(dp494
g13
I0
sg14
I17
sbag0
(g9
g2
Ntp495
Rp496
(dp497
g13
I1
sg14
I17
sbag0
(g9
g2
Ntp498
Rp499
(dp500
g13
I48
sg14
I17
sbag0
(g9
g2
Ntp501
Rp502
(dp503
g13
I49
sg14
I17
sbag0
(g9
g2
Ntp504
Rp505
(dp506
g13
I0
sg14
I18
sbag0
(g9
g2
Ntp507
Rp508
(dp509
g13
I1
sg14
I18
sbag0
(g9
g2
Ntp510
Rp511
(dp512
g13
I48
sg14
I18
sbag0
(g9
g2
Ntp513
Rp514
(dp515
g13
I49
sg14
I18
sbag0
(g9
g2
Ntp516
Rp517
(dp518
g13
I0
sg14
I19
sbag0
(g9
g2
Ntp519
Rp520
(dp521
g13
I1
sg14
I19
sbag0
(g9
g2
Ntp522
Rp523
(dp524
g13
I48
sg14
I19
sbag0
(g9
g2
Ntp525
Rp526
(dp527
g13
I49
sg14
I19
sbag0
(g9
g2
Ntp528
Rp529
(dp530
g13
I0
sg14
I20
sbag0
(g9
g2
Ntp531
Rp532
(dp533
g13
I1
sg14
I20
sbag0
(g9
g2
Ntp534
Rp535
(dp536
g13
I48
sg14
I20
sbag0
(g9
g2
Ntp537
Rp538
(dp539
g13
I49
sg14
I20
sbag0
(g9
g2
Ntp540
Rp541
(dp542
g13
I0
sg14
I21
sbag0
(g9
g2
Ntp543
Rp544
(dp545
g13
I1
sg14
I21
sbag0
(g9
g2
Ntp546
Rp547
(dp548
g13
I48
sg14
I21
sbag0
(g9
g2
Ntp549
Rp550
(dp551
g13
I49
sg14
I21
sbag0
(g9
g2
Ntp552
Rp553
(dp554
g13
I0
sg14
I22
sbag0
(g9
g2
Ntp555
Rp556
(dp557
g13
I1
sg14
I22
sbag0
(g9
g2
Ntp558
Rp559
(dp560
g13
I48
sg14
I22
sbag0
(g9
g2
Ntp561
Rp562
(dp563
g13
I49
sg14
I22
sbag0
(g9
g2
Ntp564
Rp565
(dp566
g13
I0
sg14
I23
sbag0
(g9
g2
Ntp567
Rp568
(dp569
g13
I1
sg14
I23
sbag0
(g9
g2
Ntp570
Rp571
(dp572
g13
I48
sg14
I23
sbag0
(g9
g2
Ntp573
Rp574
(dp575
g13
I49
sg14
I23
sbag0
(g9
g2
Ntp576
Rp577
(dp578
g13
I0
sg14
I24
sbag0
(g9
g2
Ntp579
Rp580
(dp581
g13
I1
sg14
I24
sbag0
(g9
g2
Ntp582
Rp583
(dp584
g13
I48
sg14
I24
sbag0
(g9
g2
Ntp585
Rp586
(dp587
g13
I49
sg14
I24
sbag0
(g9
g2
Ntp588
Rp589
(dp590
g13
I0
sg14
I25
sbag0
(g9
g2
Ntp591
Rp592
(dp593
g13
I1
sg14
I25
sbag0
(g9
g2
Ntp594
Rp595
(dp596
g13
I48
sg14
I25
sbag0
(g9
g2
Ntp597
Rp598
(dp599
g13
I49
sg14
I25
sbag0
(g9
g2
Ntp600
Rp601
(dp602
g13
I0
sg14
I26
sbag0
(g9
g2
Ntp603
Rp604
(dp605
g13
I1
sg14
I26
sbag0
(g9
g2
Ntp606
Rp607
(dp608
g13
I48
sg14
I26
sbag0
(g9
g2
Ntp609
Rp610
(dp611
g13
I49
sg14
I26
sbag0
(g9
g2
Ntp612
Rp613
(dp614
g13
I0
sg14
I27
sbag0
(g9
g2
Ntp615
Rp616
(dp617
g13
I1
sg14
I27
sbag0
(g9
g2
Ntp618
Rp619
(dp620
g13
I48
sg14
I27
sbag0
(g9
g2
Ntp621
Rp622
(dp623
g13
I49
sg14
I27
sbag0
(g9
g2
Ntp624
Rp625
(dp626
g13
I0
sg14
I28
sbag0
(g9
g2
Ntp627
Rp628
(dp629
g13
I1
sg14
I28
sbag0
(g9
g2
Ntp630
Rp631
(dp632
g13
I48
sg14
I28
sbag0
(g9
g2
Ntp633
Rp634
(dp635
g13
I49
sg14
I28
sbag0
(g9
g2
Ntp636
Rp637
(dp638
g13
I0
sg14
I29
sbag0
(g9
g2
Ntp639
Rp640
(dp641
g13
I1
sg14
I29
sbag0
(g9
g2
Ntp642
Rp643
(dp644
g13
I48
sg14
I29
sbag0
(g9
g2
Ntp645
Rp646
(dp647
g13
I49
sg14
I29
sbag0
(g9
g2
Ntp648
Rp649
(dp650
g13
I0
sg14
I30
sbag0
(g9
g2
Ntp651
Rp652
(dp653
g13
I1
sg14
I30
sbag0
(g9
g2
Ntp654
Rp655
(dp656
g13
I48
sg14
I30
sbag0
(g9
g2
Ntp657
Rp658
(dp659
g13
I49
sg14
I30
sbag0
(g9
g2
Ntp660
Rp661
(dp662
g13
I0
sg14
I31
sbag0
(g9
g2
Ntp663
Rp664
(dp665
g13
I1
sg14
I31
sbag0
(g9
g2
Ntp666
Rp667
(dp668
g13
I48
sg14
I31
sbag0
(g9
g2
Ntp669
Rp670
(dp671
g13
I49
sg14
I31
sbag0
(g9
g2
Ntp672
Rp673
(dp674
g13
I0
sg14
I32
sbag0
(g9
g2
Ntp675
Rp676
(dp677
g13
I1
sg14
I32
sbag0
(g9
g2
Ntp678
Rp679
(dp680
g13
I48
sg14
I32
sbag0
(g9
g2
Ntp681
Rp682
(dp683
g13
I49
sg14
I32
sbag0
(g9
g2
Ntp684
Rp685
(dp686
g13
I0
sg14
I33
sbag0
(g9
g2
Ntp687
Rp688
(dp689
g13
I1
sg14
I33
sbag0
(g9
g2
Ntp690
Rp691
(dp692
g13
I48
sg14
I33
sbag0
(g9
g2
Ntp693
Rp694
(dp695
g13
I49
sg14
I33
sbag0
(g9
g2
Ntp696
Rp697
(dp698
g13
I0
sg14
I34
sbag0
(g9
g2
Ntp699
Rp700
(dp701
g13
I1
sg14
I34
sbag0
(g9
g2
Ntp702
Rp703
(dp704
g13
I48
sg14
I34
sbag0
(g9
g2
Ntp705
Rp706
(dp707
g13
I49
sg14
I34
sbag0
(g9
g2
Ntp708
Rp709
(dp710
g13
I0
sg14
I35
sbag0
(g9
g2
Ntp711
Rp712
(dp713
g13
I1
sg14
I35
sbag0
(g9
g2
Ntp714
Rp715
(dp716
g13
I48
sg14
I35
sbag0
(g9
g2
Ntp717
Rp718
(dp719
g13
I49
sg14
I35
sbag0
(g9
g2
Ntp720
Rp721
(dp722
g13
I0
sg14
I36
sbag0
(g9
g2
Ntp723
Rp724
(dp725
g13
I1
sg14
I36
sbag0
(g9
g2
Ntp726
Rp727
(dp728
g13
I48
sg14
I36
sbag0
(g9
g2
Ntp729
Rp730
(dp731
g13
I49
sg14
I36
sbag0
(g9
g2
Ntp732
Rp733
(dp734
g13
I48
sg14
I37
sbag0
(g9
g2
Ntp735
Rp736
(dp737
g13
I49
sg14
I37
sbag0
(g9
g2
Ntp738
Rp739
(dp740
g13
I48
sg14
I38
sbag0
(g9
g2
Ntp741
Rp742
(dp743
g13
I49
sg14
I38
sbag0
(g9
g2
Ntp744
Rp745
(dp746
g13
I48
sg14
I39
sbag0
(g9
g2
Ntp747
Rp748
(dp749
g13
I49
sg14
I39
sbag0
(g9
g2
Ntp750
Rp751
(dp752
g13
I0
sg14
I40
sbag0
(g9
g2
Ntp753
Rp754
(dp755
g13
I1
sg14
I40
sbag0
(g9
g2
Ntp756
Rp757
(dp758
g13
I48
sg14
I40
sbag0
(g9
g2
Ntp759
Rp760
(dp761
g13
I49
sg14
I40
sbag0
(g9
g2
Ntp762
Rp763
(dp764
g13
I0
sg14
I41
sbag0
(g9
g2
Ntp765
Rp766
(dp767
g13
I1
sg14
I41
sbag0
(g9
g2
Ntp768
Rp769
(dp770
g13
I48
sg14
I41
sbag0
(g9
g2
Ntp771
Rp772
(dp773
g13
I49
sg14
I41
sbag0
(g9
g2
Ntp774
Rp775
(dp776
g13
I0
sg14
I42
sbag0
(g9
g2
Ntp777
Rp778
(dp779
g13
I1
sg14
I42
sbag0
(g9
g2
Ntp780
Rp781
(dp782
g13
I48
sg14
I42
sbag0
(g9
g2
Ntp783
Rp784
(dp785
g13
I49
sg14
I42
sbag0
(g9
g2
Ntp786
Rp787
(dp788
g13
I0
sg14
I43
sbag0
(g9
g2
Ntp789
Rp790
(dp791
g13
I1
sg14
I43
sbag0
(g9
g2
Ntp792
Rp793
(dp794
g13
I48
sg14
I43
sbag0
(g9
g2
Ntp795
Rp796
(dp797
g13
I49
sg14
I43
sbag0
(g9
g2
Ntp798
Rp799
(dp800
g13
I0
sg14
I44
sbag0
(g9
g2
Ntp801
Rp802
(dp803
g13
I1
sg14
I44
sbag0
(g9
g2
Ntp804
Rp805
(dp806
g13
I48
sg14
I44
sbag0
(g9
g2
Ntp807
Rp808
(dp809
g13
I49
sg14
I44
sbag0
(g9
g2
Ntp810
Rp811
(dp812
g13
I0
sg14
I45
sbag0
(g9
g2
Ntp813
Rp814
(dp815
g13
I1
sg14
I45
sbag0
(g9
g2
Ntp816
Rp817
(dp818
g13
I48
sg14
I45
sbag0
(g9
g2
Ntp819
Rp820
(dp821
g13
I49
sg14
I45
sbag0
(g9
g2
Ntp822
Rp823
(dp824
g13
I0
sg14
I46
sbag0
(g9
g2
Ntp825
Rp826
(dp827
g13
I1
sg14
I46
sbag0
(g9
g2
Ntp828
Rp829
(dp830
g13
I48
sg14
I46
sbag0
(g9
g2
Ntp831
Rp832
(dp833
g13
I49
sg14
I46
sbag0
(g9
g2
Ntp834
Rp835
(dp836
g13
I0
sg14
I47
sbag0
(g9
g2
Ntp837
Rp838
(dp839
g13
I1
sg14
I47
sbag0
(g9
g2
Ntp840
Rp841
(dp842
g13
I48
sg14
I47
sbag0
(g9
g2
Ntp843
Rp844
(dp845
g13
I49
sg14
I47
sbag0
(g9
g2
Ntp846
Rp847
(dp848
g13
I0
sg14
I48
sbag0
(g9
g2
Ntp849
Rp850
(dp851
g13
I1
sg14
I48
sbag0
(g9
g2
Ntp852
Rp853
(dp854
g13
I48
sg14
I48
sbag0
(g9
g2
Ntp855
Rp856
(dp857
g13
I49
sg14
I48
sbag0
(g9
g2
Ntp858
Rp859
(dp860
g13
I0
sg14
I49
sbag0
(g9
g2
Ntp861
Rp862
(dp863
g13
I1
sg14
I49
sbag0
(g9
g2
Ntp864
Rp865
(dp866
g13
I48
sg14
I49
sbag0
(g9
g2
Ntp867
Rp868
(dp869
g13
I49
sg14
I49
sbag0
(g9
g2
Ntp870
Rp871
(dp872
g13
I0
sg14
I50
sbag0
(g9
g2
Ntp873
Rp874
(dp875
g13
I1
sg14
I50
sbag0
(g9
g2
Ntp876
Rp877
(dp878
g13
I48
sg14
I50
sbag0
(g9
g2
Ntp879
Rp880
(dp881
g13
I49
sg14
I50
sbag0
(g9
g2
Ntp882
Rp883
(dp884
g13
I0
sg14
I51
sbag0
(g9
g2
Ntp885
Rp886
(dp887
g13
I1
sg14
I51
sbag0
(g9
g2
Ntp888
Rp889
(dp890
g13
I48
sg14
I51
sbag0
(g9
g2
Ntp891
Rp892
(dp893
g13
I49
sg14
I51
sbag0
(g9
g2
Ntp894
Rp895
(dp896
g13
I0
sg14
I52
sbag0
(g9
g2
Ntp897
Rp898
(dp899
g13
I1
sg14
I52
sbag0
(g9
g2
Ntp900
Rp901
(dp902
g13
I48
sg14
I52
sbag0
(g9
g2
Ntp903
Rp904
(dp905
g13
I49
sg14
I52
sbag0
(g9
g2
Ntp906
Rp907
(dp908
g13
I0
sg14
I53
sbag0
(g9
g2
Ntp909
Rp910
(dp911
g13
I1
sg14
I53
sbag0
(g9
g2
Ntp912
Rp913
(dp914
g13
I48
sg14
I53
sbag0
(g9
g2
Ntp915
Rp916
(dp917
g13
I49
sg14
I53
sbag0
(g9
g2
Ntp918
Rp919
(dp920
g13
I0
sg14
I54
sbag0
(g9
g2
Ntp921
Rp922
(dp923
g13
I1
sg14
I54
sbag0
(g9
g2
Ntp924
Rp925
(dp926
g13
I48
sg14
I54
sbag0
(g9
g2
Ntp927
Rp928
(dp929
g13
I49
sg14
I54
sbag0
(g9
g2
Ntp930
Rp931
(dp932
g13
I0
sg14
I55
sbag0
(g9
g2
Ntp933
Rp934
(dp935
g13
I1
sg14
I55
sbag0
(g9
g2
Ntp936
Rp937
(dp938
g13
I48
sg14
I55
sbag0
(g9
g2
Ntp939
Rp940
(dp941
g13
I49
sg14
I55
sbag0
(g9
g2
Ntp942
Rp943
(dp944
g13
I0
sg14
I56
sbag0
(g9
g2
Ntp945
Rp946
(dp947
g13
I1
sg14
I56
sbag0
(g9
g2
Ntp948
Rp949
(dp950
g13
I48
sg14
I56
sbag0
(g9
g2
Ntp951
Rp952
(dp953
g13
I49
sg14
I56
sbag0
(g9
g2
Ntp954
Rp955
(dp956
g13
I0
sg14
I57
sbag0
(g9
g2
Ntp957
Rp958
(dp959
g13
I1
sg14
I57
sbag0
(g9
g2
Ntp960
Rp961
(dp962
g13
I48
sg14
I57
sbag0
(g9
g2
Ntp963
Rp964
(dp965
g13
I49
sg14
I57
sbag0
(g9
g2
Ntp966
Rp967
(dp968
g13
I0
sg14
I58
sbag0
(g9
g2
Ntp969
Rp970
(dp971
g13
I1
sg14
I58
sbag0
(g9
g2
Ntp972
Rp973
(dp974
g13
I48
sg14
I58
sbag0
(g9
g2
Ntp975
Rp976
(dp977
g13
I49
sg14
I58
sbag0
(g9
g2
Ntp978
Rp979
(dp980
g13
I0
sg14
I59
sbag0
(g9
g2
Ntp981
Rp982
(dp983
g13
I1
sg14
I59
sbag0
(g9
g2
Ntp984
Rp985
(dp986
g13
I48
sg14
I59
sbag0
(g9
g2
Ntp987
Rp988
(dp989
g13
I49
sg14
I59
sbag0
(g9
g2
Ntp990
Rp991
(dp992
g13
I0
sg14
I60
sbag0
(g9
g2
Ntp993
Rp994
(dp995
g13
I1
sg14
I60
sbag0
(g9
g2
Ntp996
Rp997
(dp998
g13
I48
sg14
I60
sbag0
(g9
g2
Ntp999
Rp1000
(dp1001
g13
I49
sg14
I60
sbag0
(g9
g2
Ntp1002
Rp1003
(dp1004
g13
I0
sg14
I61
sbag0
(g9
g2
Ntp1005
Rp1006
(dp1007
g13
I1
sg14
I61
sbag0
(g9
g2
Ntp1008
Rp1009
(dp1010
g13
I48
sg14
I61
sbag0
(g9
g2
Ntp1011
Rp1012
(dp1013
g13
I49
sg14
I61
sbag0
(g9
g2
Ntp1014
Rp1015
(dp1016
g13
I0
sg14
I62
sbag0
(g9
g2
Ntp1017
Rp1018
(dp1019
g13
I1
sg14
I62
sbag0
(g9
g2
Ntp1020
Rp1021
(dp1022
g13
I48
sg14
I62
sbag0
(g9
g2
Ntp1023
Rp1024
(dp1025
g13
I49
sg14
I62
sbag0
(g9
g2
Ntp1026
Rp1027
(dp1028
g13
I0
sg14
I63
sbag0
(g9
g2
Ntp1029
Rp1030
(dp1031
g13
I1
sg14
I63
sbag0
(g9
g2
Ntp1032
Rp1033
(dp1034
g13
I48
sg14
I63
sbag0
(g9
g2
Ntp1035
Rp1036
(dp1037
g13
I49
sg14
I63
sbag0
(g9
g2
Ntp1038
Rp1039
(dp1040
g13
I0
sg14
I64
sbag0
(g9
g2
Ntp1041
Rp1042
(dp1043
g13
I1
sg14
I64
sbag0
(g9
g2
Ntp1044
Rp1045
(dp1046
g13
I48
sg14
I64
sbag0
(g9
g2
Ntp1047
Rp1048
(dp1049
g13
I49
sg14
I64
sbag0
(g9
g2
Ntp1050
Rp1051
(dp1052
g13
I0
sg14
I65
sbag0
(g9
g2
Ntp1053
Rp1054
(dp1055
g13
I1
sg14
I65
sbag0
(g9
g2
Ntp1056
Rp1057
(dp1058
g13
I48
sg14
I65
sbag0
(g9
g2
Ntp1059
Rp1060
(dp1061
g13
I49
sg14
I65
sbag0
(g9
g2
Ntp1062
Rp1063
(dp1064
g13
I0
sg14
I66
sbag0
(g9
g2
Ntp1065
Rp1066
(dp1067
g13
I1
sg14
I66
sbag0
(g9
g2
Ntp1068
Rp1069
(dp1070
g13
I48
sg14
I66
sbag0
(g9
g2
Ntp1071
Rp1072
(dp1073
g13
I49
sg14
I66
sbag0
(g9
g2
Ntp1074
Rp1075
(dp1076
g13
I0
sg14
I67
sbag0
(g9
g2
Ntp1077
Rp1078
(dp1079
g13
I1
sg14
I67
sbag0
(g9
g2
Ntp1080
Rp1081
(dp1082
g13
I48
sg14
I67
sbag0
(g9
g2
Ntp1083
Rp1084
(dp1085
g13
I49
sg14
I67
sbag0
(g9
g2
Ntp1086
Rp1087
(dp1088
g13
I0
sg14
I68
sbag0
(g9
g2
Ntp1089
Rp1090
(dp1091
g13
I1
sg14
I68
sbag0
(g9
g2
Ntp1092
Rp1093
(dp1094
g13
I48
sg14
I68
sbag0
(g9
g2
Ntp1095
Rp1096
(dp1097
g13
I49
sg14
I68
sbag0
(g9
g2
Ntp1098
Rp1099
(dp1100
g13
I0
sg14
I69
sbag0
(g9
g2
Ntp1101
Rp1102
(dp1103
g13
I1
sg14
I69
sbag0
(g9
g2
Ntp1104
Rp1105
(dp1106
g13
I48
sg14
I69
sbag0
(g9
g2
Ntp1107
Rp1108
(dp1109
g13
I49
sg14
I69
sbag0
(g9
g2
Ntp1110
Rp1111
(dp1112
g13
I0
sg14
I70
sbag0
(g9
g2
Ntp1113
Rp1114
(dp1115
g13
I1
sg14
I70
sbag0
(g9
g2
Ntp1116
Rp1117
(dp1118
g13
I48
sg14
I70
sbag0
(g9
g2
Ntp1119
Rp1120
(dp1121
g13
I49
sg14
I70
sbag0
(g9
g2
Ntp1122
Rp1123
(dp1124
g13
I0
sg14
I71
sbag0
(g9
g2
Ntp1125
Rp1126
(dp1127
g13
I1
sg14
I71
sbag0
(g9
g2
Ntp1128
Rp1129
(dp1130
g13
I48
sg14
I71
sbag0
(g9
g2
Ntp1131
Rp1132
(dp1133
g13
I49
sg14
I71
sbag0
(g9
g2
Ntp1134
Rp1135
(dp1136
g13
I0
sg14
I72
sbag0
(g9
g2
Ntp1137
Rp1138
(dp1139
g13
I1
sg14
I72
sbag0
(g9
g2
Ntp1140
Rp1141
(dp1142
g13
I48
sg14
I72
sbag0
(g9
g2
Ntp1143
Rp1144
(dp1145
g13
I49
sg14
I72
sbag0
(g9
g2
Ntp1146
Rp1147
(dp1148
g13
I0
sg14
I73
sbag0
(g9
g2
Ntp1149
Rp1150
(dp1151
g13
I1
sg14
I73
sbag0
(g9
g2
Ntp1152
Rp1153
(dp1154
g13
I48
sg14
I73
sbag0
(g9
g2
Ntp1155
Rp1156
(dp1157
g13
I49
sg14
I73
sbag0
(g9
g2
Ntp1158
Rp1159
(dp1160
g13
I0
sg14
I74
sbag0
(g9
g2
Ntp1161
Rp1162
(dp1163
g13
I1
sg14
I74
sbag0
(g9
g2
Ntp1164
Rp1165
(dp1166
g13
I48
sg14
I74
sbag0
(g9
g2
Ntp1167
Rp1168
(dp1169
g13
I49
sg14
I74
sbag0
(g9
g2
Ntp1170
Rp1171
(dp1172
g13
I0
sg14
I75
sbag0
(g9
g2
Ntp1173
Rp1174
(dp1175
g13
I1
sg14
I75
sbag0
(g9
g2
Ntp1176
Rp1177
(dp1178
g13
I48
sg14
I75
sbag0
(g9
g2
Ntp1179
Rp1180
(dp1181
g13
I49
sg14
I75
sbag0
(g9
g2
Ntp1182
Rp1183
(dp1184
g13
I0
sg14
I76
sbag0
(g9
g2
Ntp1185
Rp1186
(dp1187
g13
I1
sg14
I76
sbag0
(g9
g2
Ntp1188
Rp1189
(dp1190
g13
I48
sg14
I76
sbag0
(g9
g2
Ntp1191
Rp1192
(dp1193
g13
I49
sg14
I76
sbag0
(g9
g2
Ntp1194
Rp1195
(dp1196
g13
I0
sg14
I77
sbag0
(g9
g2
Ntp1197
Rp1198
(dp1199
g13
I1
sg14
I77
sbag0
(g9
g2
Ntp1200
Rp1201
(dp1202
g13
I48
sg14
I77
sbag0
(g9
g2
Ntp1203
Rp1204
(dp1205
g13
I49
sg14
I77
sbag0
(g9
g2
Ntp1206
Rp1207
(dp1208
g13
I0
sg14
I78
sbag0
(g9
g2
Ntp1209
Rp1210
(dp1211
g13
I1
sg14
I78
sbag0
(g9
g2
Ntp1212
Rp1213
(dp1214
g13
I2
sg14
I78
sbag0
(g9
g2
Ntp1215
Rp1216
(dp1217
g13
I3
sg14
I78
sbag0
(g9
g2
Ntp1218
Rp1219
(dp1220
g13
I4
sg14
I78
sbag0
(g9
g2
Ntp1221
Rp1222
(dp1223
g13
I5
sg14
I78
sbag0
(g9
g2
Ntp1224
Rp1225
(dp1226
g13
I6
sg14
I78
sbag0
(g9
g2
Ntp1227
Rp1228
(dp1229
g13
I7
sg14
I78
sbag0
(g9
g2
Ntp1230
Rp1231
(dp1232
g13
I8
sg14
I78
sbag0
(g9
g2
Ntp1233
Rp1234
(dp1235
g13
I9
sg14
I78
sbag0
(g9
g2
Ntp1236
Rp1237
(dp1238
g13
I10
sg14
I78
sbag0
(g9
g2
Ntp1239
Rp1240
(dp1241
g13
I11
sg14
I78
sbag0
(g9
g2
Ntp1242
Rp1243
(dp1244
g13
I12
sg14
I78
sbag0
(g9
g2
Ntp1245
Rp1246
(dp1247
g13
I13
sg14
I78
sbag0
(g9
g2
Ntp1248
Rp1249
(dp1250
g13
I14
sg14
I78
sbag0
(g9
g2
Ntp1251
Rp1252
(dp1253
g13
I15
sg14
I78
sbag0
(g9
g2
Ntp1254
Rp1255
(dp1256
g13
I16
sg14
I78
sbag0
(g9
g2
Ntp1257
Rp1258
(dp1259
g13
I17
sg14
I78
sbag0
(g9
g2
Ntp1260
Rp1261
(dp1262
g13
I18
sg14
I78
sbag0
(g9
g2
Ntp1263
Rp1264
(dp1265
g13
I19
sg14
I78
sbag0
(g9
g2
Ntp1266
Rp1267
(dp1268
g13
I20
sg14
I78
sbag0
(g9
g2
Ntp1269
Rp1270
(dp1271
g13
I21
sg14
I78
sbag0
(g9
g2
Ntp1272
Rp1273
(dp1274
g13
I22
sg14
I78
sbag0
(g9
g2
Ntp1275
Rp1276
(dp1277
g13
I23
sg14
I78
sbag0
(g9
g2
Ntp1278
Rp1279
(dp1280
g13
I24
sg14
I78
sbag0
(g9
g2
Ntp1281
Rp1282
(dp1283
g13
I25
sg14
I78
sbag0
(g9
g2
Ntp1284
Rp1285
(dp1286
g13
I26
sg14
I78
sbag0
(g9
g2
Ntp1287
Rp1288
(dp1289
g13
I27
sg14
I78
sbag0
(g9
g2
Ntp1290
Rp1291
(dp1292
g13
I28
sg14
I78
sbag0
(g9
g2
Ntp1293
Rp1294
(dp1295
g13
I29
sg14
I78
sbag0
(g9
g2
Ntp1296
Rp1297
(dp1298
g13
I30
sg14
I78
sbag0
(g9
g2
Ntp1299
Rp1300
(dp1301
g13
I31
sg14
I78
sbag0
(g9
g2
Ntp1302
Rp1303
(dp1304
g13
I32
sg14
I78
sbag0
(g9
g2
Ntp1305
Rp1306
(dp1307
g13
I33
sg14
I78
sbag0
(g9
g2
Ntp1308
Rp1309
(dp1310
g13
I34
sg14
I78
sbag0
(g9
g2
Ntp1311
Rp1312
(dp1313
g13
I35
sg14
I78
sbag0
(g9
g2
Ntp1314
Rp1315
(dp1316
g13
I36
sg14
I78
sbag0
(g9
g2
Ntp1317
Rp1318
(dp1319
g13
I37
sg14
I78
sbag0
(g9
g2
Ntp1320
Rp1321
(dp1322
g13
I38
sg14
I78
sbag0
(g9
g2
Ntp1323
Rp1324
(dp1325
g13
I39
sg14
I78
sbag0
(g9
g2
Ntp1326
Rp1327
(dp1328
g13
I40
sg14
I78
sbag0
(g9
g2
Ntp1329
Rp1330
(dp1331
g13
I41
sg14
I78
sbag0
(g9
g2
Ntp1332
Rp1333
(dp1334
g13
I42
sg14
I78
sbag0
(g9
g2
Ntp1335
Rp1336
(dp1337
g13
I43
sg14
I78
sbag0
(g9
g2
Ntp1338
Rp1339
(dp1340
g13
I44
sg14
I78
sbag0
(g9
g2
Ntp1341
Rp1342
(dp1343
g13
I45
sg14
I78
sbag0
(g9
g2
Ntp1344
Rp1345
(dp1346
g13
I46
sg14
I78
sbag0
(g9
g2
Ntp1347
Rp1348
(dp1349
g13
I47
sg14
I78
sbag0
(g9
g2
Ntp1350
Rp1351
(dp1352
g13
I48
sg14
I78
sbag0
(g9
g2
Ntp1353
Rp1354
(dp1355
g13
I49
sg14
I78
sbag0
(g9
g2
Ntp1356
Rp1357
(dp1358
g13
I0
sg14
I79
sbag0
(g9
g2
Ntp1359
Rp1360
(dp1361
g13
I1
sg14
I79
sbag0
(g9
g2
Ntp1362
Rp1363
(dp1364
g13
I2
sg14
I79
sbag0
(g9
g2
Ntp1365
Rp1366
(dp1367
g13
I3
sg14
I79
sbag0
(g9
g2
Ntp1368
Rp1369
(dp1370
g13
I4
sg14
I79
sbag0
(g9
g2
Ntp1371
Rp1372
(dp1373
g13
I5
sg14
I79
sbag0
(g9
g2
Ntp1374
Rp1375
(dp1376
g13
I6
sg14
I79
sbag0
(g9
g2
Ntp1377
Rp1378
(dp1379
g13
I7
sg14
I79
sbag0
(g9
g2
Ntp1380
Rp1381
(dp1382
g13
I8
sg14
I79
sbag0
(g9
g2
Ntp1383
Rp1384
(dp1385
g13
I9
sg14
I79
sbag0
(g9
g2
Ntp1386
Rp1387
(dp1388
g13
I10
sg14
I79
sbag0
(g9
g2
Ntp1389
Rp1390
(dp1391
g13
I11
sg14
I79
sbag0
(g9
g2
Ntp1392
Rp1393
(dp1394
g13
I12
sg14
I79
sbag0
(g9
g2
Ntp1395
Rp1396
(dp1397
g13
I13
sg14
I79
sbag0
(g9
g2
Ntp1398
Rp1399
(dp1400
g13
I14
sg14
I79
sbag0
(g9
g2
Ntp1401
Rp1402
(dp1403
g13
I15
sg14
I79
sbag0
(g9
g2
Ntp1404
Rp1405
(dp1406
g13
I16
sg14
I79
sbag0
(g9
g2
Ntp1407
Rp1408
(dp1409
g13
I17
sg14
I79
sbag0
(g9
g2
Ntp1410
Rp1411
(dp1412
g13
I18
sg14
I79
sbag0
(g9
g2
Ntp1413
Rp1414
(dp1415
g13
I19
sg14
I79
sbag0
(g9
g2
Ntp1416
Rp1417
(dp1418
g13
I20
sg14
I79
sbag0
(g9
g2
Ntp1419
Rp1420
(dp1421
g13
I21
sg14
I79
sbag0
(g9
g2
Ntp1422
Rp1423
(dp1424
g13
I22
sg14
I79
sbag0
(g9
g2
Ntp1425
Rp1426
(dp1427
g13
I23
sg14
I79
sbag0
(g9
g2
Ntp1428
Rp1429
(dp1430
g13
I24
sg14
I79
sbag0
(g9
g2
Ntp1431
Rp1432
(dp1433
g13
I25
sg14
I79
sbag0
(g9
g2
Ntp1434
Rp1435
(dp1436
g13
I26
sg14
I79
sbag0
(g9
g2
Ntp1437
Rp1438
(dp1439
g13
I27
sg14
I79
sbag0
(g9
g2
Ntp1440
Rp1441
(dp1442
g13
I28
sg14
I79
sbag0
(g9
g2
Ntp1443
Rp1444
(dp1445
g13
I29
sg14
I79
sbag0
(g9
g2
Ntp1446
Rp1447
(dp1448
g13
I30
sg14
I79
sbag0
(g9
g2
Ntp1449
Rp1450
(dp1451
g13
I31
sg14
I79
sbag0
(g9
g2
Ntp1452
Rp1453
(dp1454
g13
I32
sg14
I79
sbag0
(g9
g2
Ntp1455
Rp1456
(dp1457
g13
I33
sg14
I79
sbag0
(g9
g2
Ntp1458
Rp1459
(dp1460
g13
I34
sg14
I79
sbag0
(g9
g2
Ntp1461
Rp1462
(dp1463
g13
I35
sg14
I79
sbag0
(g9
g2
Ntp1464
Rp1465
(dp1466
g13
I36
sg14
I79
sbag0
(g9
g2
Ntp1467
Rp1468
(dp1469
g13
I37
sg14
I79
sbag0
(g9
g2
Ntp1470
Rp1471
(dp1472
g13
I38
sg14
I79
sbag0
(g9
g2
Ntp1473
Rp1474
(dp1475
g13
I39
sg14
I79
sbag0
(g9
g2
Ntp1476
Rp1477
(dp1478
g13
I40
sg14
I79
sbag0
(g9
g2
Ntp1479
Rp1480
(dp1481
g13
I41
sg14
I79
sbag0
(g9
g2
Ntp1482
Rp1483
(dp1484
g13
I42
sg14
I79
sbag0
(g9
g2
Ntp1485
Rp1486
(dp1487
g13
I43
sg14
I79
sbag0
(g9
g2
Ntp1488
Rp1489
(dp1490
g13
I44
sg14
I79
sbag0
(g9
g2
Ntp1491
Rp1492
(dp1493
g13
I45
sg14
I79
sbag0
(g9
g2
Ntp1494
Rp1495
(dp1496
g13
I46
sg14
I79
sbag0
(g9
g2
Ntp1497
Rp1498
(dp1499
g13
I47
sg14
I79
sbag0
(g9
g2
Ntp1500
Rp1501
(dp1502
g13
I48
sg14
I79
sbag0
(g9
g2
Ntp1503
Rp1504
(dp1505
g13
I49
sg14
I79
sbag0
(g9
g2
Ntp1506
Rp1507
(dp1508
g13
I2
sg14
I2
sbag0
(g9
g2
Ntp1509
Rp1510
(dp1511
g13
I3
sg14
I2
sbag0
(g9
g2
Ntp1512
Rp1513
(dp1514
g13
I4
sg14
I2
sbag0
(g9
g2
Ntp1515
Rp1516
(dp1517
g13
I2
sg14
I3
sbag0
(g9
g2
Ntp1518
Rp1519
(dp1520
g13
I3
sg14
I3
sbag0
(g9
g2
Ntp1521
Rp1522
(dp1523
g13
I4
sg14
I3
sbag0
(g9
g2
Ntp1524
Rp1525
(dp1526
g13
I2
sg14
I4
sbag0
(g9
g2
Ntp1527
Rp1528
(dp1529
g13
I3
sg14
I4
sbag0
(g9
g2
Ntp1530
Rp1531
(dp1532
g13
I4
sg14
I4
sbag0
(g9
g2
Ntp1533
Rp1534
(dp1535
g13
I2
sg14
I5
sbag0
(g9
g2
Ntp1536
Rp1537
(dp1538
g13
I3
sg14
I5
sbag0
(g9
g2
Ntp1539
Rp1540
(dp1541
g13
I4
sg14
I5
sbag0
(g9
g2
Ntp1542
Rp1543
(dp1544
g13
I2
sg14
I6
sbag0
(g9
g2
Ntp1545
Rp1546
(dp1547
g13
I3
sg14
I6
sbag0
(g9
g2
Ntp1548
Rp1549
(dp1550
g13
I4
sg14
I6
sbag0
(g9
g2
Ntp1551
Rp1552
(dp1553
g13
I2
sg14
I7
sbag0
(g9
g2
Ntp1554
Rp1555
(dp1556
g13
I3
sg14
I7
sbag0
(g9
g2
Ntp1557
Rp1558
(dp1559
g13
I4
sg14
I7
sbag0
(g9
g2
Ntp1560
Rp1561
(dp1562
g13
I2
sg14
I8
sbag0
(g9
g2
Ntp1563
Rp1564
(dp1565
g13
I3
sg14
I8
sbag0
(g9
g2
Ntp1566
Rp1567
(dp1568
g13
I4
sg14
I8
sbag0
(g9
g2
Ntp1569
Rp1570
(dp1571
g13
I2
sg14
I9
sbag0
(g9
g2
Ntp1572
Rp1573
(dp1574
g13
I3
sg14
I9
sbag0
(g9
g2
Ntp1575
Rp1576
(dp1577
g13
I4
sg14
I9
sbag0
(g9
g2
Ntp1578
Rp1579
(dp1580
g13
I2
sg14
I10
sbag0
(g9
g2
Ntp1581
Rp1582
(dp1583
g13
I3
sg14
I10
sbag0
(g9
g2
Ntp1584
Rp1585
(dp1586
g13
I4
sg14
I10
sbag0
(g9
g2
Ntp1587
Rp1588
(dp1589
g13
I2
sg14
I11
sbag0
(g9
g2
Ntp1590
Rp1591
(dp1592
g13
I3
sg14
I11
sbag0
(g9
g2
Ntp1593
Rp1594
(dp1595
g13
I4
sg14
I11
sbag0
(g9
g2
Ntp1596
Rp1597
(dp1598
g13
I2
sg14
I12
sbag0
(g9
g2
Ntp1599
Rp1600
(dp1601
g13
I3
sg14
I12
sbag0
(g9
g2
Ntp1602
Rp1603
(dp1604
g13
I4
sg14
I12
sbag0
(g9
g2
Ntp1605
Rp1606
(dp1607
g13
I2
sg14
I13
sbag0
(g9
g2
Ntp1608
Rp1609
(dp1610
g13
I3
sg14
I13
sbag0
(g9
g2
Ntp1611
Rp1612
(dp1613
g13
I4
sg14
I13
sbag0
(g9
g2
Ntp1614
Rp1615
(dp1616
g13
I2
sg14
I14
sbag0
(g9
g2
Ntp1617
Rp1618
(dp1619
g13
I3
sg14
I14
sbag0
(g9
g2
Ntp1620
Rp1621
(dp1622
g13
I4
sg14
I14
sbag0
(g9
g2
Ntp1623
Rp1624
(dp1625
g13
I2
sg14
I15
sbag0
(g9
g2
Ntp1626
Rp1627
(dp1628
g13
I3
sg14
I15
sbag0
(g9
g2
Ntp1629
Rp1630
(dp1631
g13
I4
sg14
I15
sbag0
(g9
g2
Ntp1632
Rp1633
(dp1634
g13
I2
sg14
I16
sbag0
(g9
g2
Ntp1635
Rp1636
(dp1637
g13
I3
sg14
I16
sbag0
(g9
g2
Ntp1638
Rp1639
(dp1640
g13
I4
sg14
I16
sbag0
(g9
g2
Ntp1641
Rp1642
(dp1643
g13
I2
sg14
I17
sbag0
(g9
g2
Ntp1644
Rp1645
(dp1646
g13
I3
sg14
I17
sbag0
(g9
g2
Ntp1647
Rp1648
(dp1649
g13
I4
sg14
I17
sbag0
(g9
g2
Ntp1650
Rp1651
(dp1652
g13
I2
sg14
I18
sbag0
(g9
g2
Ntp1653
Rp1654
(dp1655
g13
I3
sg14
I18
sbag0
(g9
g2
Ntp1656
Rp1657
(dp1658
g13
I4
sg14
I18
sbag0
(g9
g2
Ntp1659
Rp1660
(dp1661
g13
I2
sg14
I19
sbag0
(g9
g2
Ntp1662
Rp1663
(dp1664
g13
I3
sg14
I19
sbag0
(g9
g2
Ntp1665
Rp1666
(dp1667
g13
I4
sg14
I19
sbag0
(g9
g2
Ntp1668
Rp1669
(dp1670
g13
I2
sg14
I20
sbag0
(g9
g2
Ntp1671
Rp1672
(dp1673
g13
I3
sg14
I20
sbag0
(g9
g2
Ntp1674
Rp1675
(dp1676
g13
I4
sg14
I20
sbag0
(g9
g2
Ntp1677
Rp1678
(dp1679
g13
I2
sg14
I21
sbag0
(g9
g2
Ntp1680
Rp1681
(dp1682
g13
I3
sg14
I21
sbag0
(g9
g2
Ntp1683
Rp1684
(dp1685
g13
I4
sg14
I21
sbag0
(g9
g2
Ntp1686
Rp1687
(dp1688
g13
I2
sg14
I22
sbag0
(g9
g2
Ntp1689
Rp1690
(dp1691
g13
I3
sg14
I22
sbag0
(g9
g2
Ntp1692
Rp1693
(dp1694
g13
I4
sg14
I22
sbag0
(g9
g2
Ntp1695
Rp1696
(dp1697
g13
I2
sg14
I23
sbag0
(g9
g2
Ntp1698
Rp1699
(dp1700
g13
I3
sg14
I23
sbag0
(g9
g2
Ntp1701
Rp1702
(dp1703
g13
I4
sg14
I23
sbag0
(g9
g2
Ntp1704
Rp1705
(dp1706
g13
I2
sg14
I24
sbag0
(g9
g2
Ntp1707
Rp1708
(dp1709
g13
I3
sg14
I24
sbag0
(g9
g2
Ntp1710
Rp1711
(dp1712
g13
I4
sg14
I24
sbag0
(g9
g2
Ntp1713
Rp1714
(dp1715
g13
I2
sg14
I25
sbag0
(g9
g2
Ntp1716
Rp1717
(dp1718
g13
I3
sg14
I25
sbag0
(g9
g2
Ntp1719
Rp1720
(dp1721
g13
I4
sg14
I25
sbag0
(g9
g2
Ntp1722
Rp1723
(dp1724
g13
I2
sg14
I26
sbag0
(g9
g2
Ntp1725
Rp1726
(dp1727
g13
I3
sg14
I26
sbag0
(g9
g2
Ntp1728
Rp1729
(dp1730
g13
I4
sg14
I26
sbag0
(g9
g2
Ntp1731
Rp1732
(dp1733
g13
I2
sg14
I27
sbag0
(g9
g2
Ntp1734
Rp1735
(dp1736
g13
I3
sg14
I27
sbag0
(g9
g2
Ntp1737
Rp1738
(dp1739
g13
I4
sg14
I27
sbag0
(g9
g2
Ntp1740
Rp1741
(dp1742
g13
I2
sg14
I28
sbag0
(g9
g2
Ntp1743
Rp1744
(dp1745
g13
I3
sg14
I28
sbag0
(g9
g2
Ntp1746
Rp1747
(dp1748
g13
I4
sg14
I28
sbag0
(g9
g2
Ntp1749
Rp1750
(dp1751
g13
I2
sg14
I29
sbag0
(g9
g2
Ntp1752
Rp1753
(dp1754
g13
I3
sg14
I29
sbag0
(g9
g2
Ntp1755
Rp1756
(dp1757
g13
I4
sg14
I29
sbag0
(g9
g2
Ntp1758
Rp1759
(dp1760
g13
I2
sg14
I30
sbag0
(g9
g2
Ntp1761
Rp1762
(dp1763
g13
I3
sg14
I30
sbag0
(g9
g2
Ntp1764
Rp1765
(dp1766
g13
I4
sg14
I30
sbag0
(g9
g2
Ntp1767
Rp1768
(dp1769
g13
I2
sg14
I31
sbag0
(g9
g2
Ntp1770
Rp1771
(dp1772
g13
I3
sg14
I31
sbag0
(g9
g2
Ntp1773
Rp1774
(dp1775
g13
I4
sg14
I31
sbag0
(g9
g2
Ntp1776
Rp1777
(dp1778
g13
I2
sg14
I32
sbag0
(g9
g2
Ntp1779
Rp1780
(dp1781
g13
I3
sg14
I32
sbag0
(g9
g2
Ntp1782
Rp1783
(dp1784
g13
I4
sg14
I32
sbag0
(g9
g2
Ntp1785
Rp1786
(dp1787
g13
I2
sg14
I33
sbag0
(g9
g2
Ntp1788
Rp1789
(dp1790
g13
I3
sg14
I33
sbag0
(g9
g2
Ntp1791
Rp1792
(dp1793
g13
I4
sg14
I33
sbag0
(g9
g2
Ntp1794
Rp1795
(dp1796
g13
I2
sg14
I34
sbag0
(g9
g2
Ntp1797
Rp1798
(dp1799
g13
I3
sg14
I34
sbag0
(g9
g2
Ntp1800
Rp1801
(dp1802
g13
I4
sg14
I34
sbag0
(g9
g2
Ntp1803
Rp1804
(dp1805
g13
I2
sg14
I35
sbag0
(g9
g2
Ntp1806
Rp1807
(dp1808
g13
I3
sg14
I35
sbag0
(g9
g2
Ntp1809
Rp1810
(dp1811
g13
I4
sg14
I35
sbag0
(g9
g2
Ntp1812
Rp1813
(dp1814
g13
I2
sg14
I36
sbag0
(g9
g2
Ntp1815
Rp1816
(dp1817
g13
I3
sg14
I36
sbag0
(g9
g2
Ntp1818
Rp1819
(dp1820
g13
I4
sg14
I36
sbag0
(g9
g2
Ntp1821
Rp1822
(dp1823
g13
I2
sg14
I40
sbag0
(g9
g2
Ntp1824
Rp1825
(dp1826
g13
I3
sg14
I40
sbag0
(g9
g2
Ntp1827
Rp1828
(dp1829
g13
I4
sg14
I40
sbag0
(g9
g2
Ntp1830
Rp1831
(dp1832
g13
I2
sg14
I41
sbag0
(g9
g2
Ntp1833
Rp1834
(dp1835
g13
I3
sg14
I41
sbag0
(g9
g2
Ntp1836
Rp1837
(dp1838
g13
I4
sg14
I41
sbag0
(g9
g2
Ntp1839
Rp1840
(dp1841
g13
I2
sg14
I42
sbag0
(g9
g2
Ntp1842
Rp1843
(dp1844
g13
I3
sg14
I42
sbag0
(g9
g2
Ntp1845
Rp1846
(dp1847
g13
I4
sg14
I42
sbag0
(g9
g2
Ntp1848
Rp1849
(dp1850
g13
I2
sg14
I43
sbag0
(g9
g2
Ntp1851
Rp1852
(dp1853
g13
I3
sg14
I43
sbag0
(g9
g2
Ntp1854
Rp1855
(dp1856
g13
I4
sg14
I43
sbag0
(g9
g2
Ntp1857
Rp1858
(dp1859
g13
I2
sg14
I44
sbag0
(g9
g2
Ntp1860
Rp1861
(dp1862
g13
I3
sg14
I44
sbag0
(g9
g2
Ntp1863
Rp1864
(dp1865
g13
I4
sg14
I44
sbag0
(g9
g2
Ntp1866
Rp1867
(dp1868
g13
I2
sg14
I45
sbag0
(g9
g2
Ntp1869
Rp1870
(dp1871
g13
I3
sg14
I45
sbag0
(g9
g2
Ntp1872
Rp1873
(dp1874
g13
I4
sg14
I45
sbag0
(g9
g2
Ntp1875
Rp1876
(dp1877
g13
I2
sg14
I46
sbag0
(g9
g2
Ntp1878
Rp1879
(dp1880
g13
I3
sg14
I46
sbag0
(g9
g2
Ntp1881
Rp1882
(dp1883
g13
I4
sg14
I46
sbag0
(g9
g2
Ntp1884
Rp1885
(dp1886
g13
I2
sg14
I47
sbag0
(g9
g2
Ntp1887
Rp1888
(dp1889
g13
I3
sg14
I47
sbag0
(g9
g2
Ntp1890
Rp1891
(dp1892
g13
I4
sg14
I47
sbag0
(g9
g2
Ntp1893
Rp1894
(dp1895
g13
I2
sg14
I48
sbag0
(g9
g2
Ntp1896
Rp1897
(dp1898
g13
I3
sg14
I48
sbag0
(g9
g2
Ntp1899
Rp1900
(dp1901
g13
I4
sg14
I48
sbag0
(g9
g2
Ntp1902
Rp1903
(dp1904
g13
I2
sg14
I49
sbag0
(g9
g2
Ntp1905
Rp1906
(dp1907
g13
I3
sg14
I49
sbag0
(g9
g2
Ntp1908
Rp1909
(dp1910
g13
I4
sg14
I49
sbag0
(g9
g2
Ntp1911
Rp1912
(dp1913
g13
I2
sg14
I50
sbag0
(g9
g2
Ntp1914
Rp1915
(dp1916
g13
I3
sg14
I50
sbag0
(g9
g2
Ntp1917
Rp1918
(dp1919
g13
I4
sg14
I50
sbag0
(g9
g2
Ntp1920
Rp1921
(dp1922
g13
I2
sg14
I51
sbag0
(g9
g2
Ntp1923
Rp1924
(dp1925
g13
I3
sg14
I51
sbag0
(g9
g2
Ntp1926
Rp1927
(dp1928
g13
I4
sg14
I51
sbag0
(g9
g2
Ntp1929
Rp1930
(dp1931
g13
I2
sg14
I52
sbag0
(g9
g2
Ntp1932
Rp1933
(dp1934
g13
I3
sg14
I52
sbag0
(g9
g2
Ntp1935
Rp1936
(dp1937
g13
I4
sg14
I52
sbag0
(g9
g2
Ntp1938
Rp1939
(dp1940
g13
I2
sg14
I53
sbag0
(g9
g2
Ntp1941
Rp1942
(dp1943
g13
I3
sg14
I53
sbag0
(g9
g2
Ntp1944
Rp1945
(dp1946
g13
I4
sg14
I53
sbag0
(g9
g2
Ntp1947
Rp1948
(dp1949
g13
I2
sg14
I54
sbag0
(g9
g2
Ntp1950
Rp1951
(dp1952
g13
I3
sg14
I54
sbag0
(g9
g2
Ntp1953
Rp1954
(dp1955
g13
I4
sg14
I54
sbag0
(g9
g2
Ntp1956
Rp1957
(dp1958
g13
I2
sg14
I55
sbag0
(g9
g2
Ntp1959
Rp1960
(dp1961
g13
I3
sg14
I55
sbag0
(g9
g2
Ntp1962
Rp1963
(dp1964
g13
I4
sg14
I55
sbag0
(g9
g2
Ntp1965
Rp1966
(dp1967
g13
I2
sg14
I56
sbag0
(g9
g2
Ntp1968
Rp1969
(dp1970
g13
I3
sg14
I56
sbag0
(g9
g2
Ntp1971
Rp1972
(dp1973
g13
I4
sg14
I56
sbag0
(g9
g2
Ntp1974
Rp1975
(dp1976
g13
I2
sg14
I57
sbag0
(g9
g2
Ntp1977
Rp1978
(dp1979
g13
I3
sg14
I57
sbag0
(g9
g2
Ntp1980
Rp1981
(dp1982
g13
I4
sg14
I57
sbag0
(g9
g2
Ntp1983
Rp1984
(dp1985
g13
I2
sg14
I58
sbag0
(g9
g2
Ntp1986
Rp1987
(dp1988
g13
I3
sg14
I58
sbag0
(g9
g2
Ntp1989
Rp1990
(dp1991
g13
I4
sg14
I58
sbag0
(g9
g2
Ntp1992
Rp1993
(dp1994
g13
I2
sg14
I59
sbag0
(g9
g2
Ntp1995
Rp1996
(dp1997
g13
I3
sg14
I59
sbag0
(g9
g2
Ntp1998
Rp1999
(dp2000
g13
I4
sg14
I59
sbag0
(g9
g2
Ntp2001
Rp2002
(dp2003
g13
I2
sg14
I60
sbag0
(g9
g2
Ntp2004
Rp2005
(dp2006
g13
I3
sg14
I60
sbag0
(g9
g2
Ntp2007
Rp2008
(dp2009
g13
I4
sg14
I60
sbag0
(g9
g2
Ntp2010
Rp2011
(dp2012
g13
I2
sg14
I61
sbag0
(g9
g2
Ntp2013
Rp2014
(dp2015
g13
I3
sg14
I61
sbag0
(g9
g2
Ntp2016
Rp2017
(dp2018
g13
I4
sg14
I61
sbag0
(g9
g2
Ntp2019
Rp2020
(dp2021
g13
I2
sg14
I62
sbag0
(g9
g2
Ntp2022
Rp2023
(dp2024
g13
I3
sg14
I62
sbag0
(g9
g2
Ntp2025
Rp2026
(dp2027
g13
I4
sg14
I62
sbag0
(g9
g2
Ntp2028
Rp2029
(dp2030
g13
I2
sg14
I63
sbag0
(g9
g2
Ntp2031
Rp2032
(dp2033
g13
I3
sg14
I63
sbag0
(g9
g2
Ntp2034
Rp2035
(dp2036
g13
I4
sg14
I63
sbag0
(g9
g2
Ntp2037
Rp2038
(dp2039
g13
I2
sg14
I64
sbag0
(g9
g2
Ntp2040
Rp2041
(dp2042
g13
I3
sg14
I64
sbag0
(g9
g2
Ntp2043
Rp2044
(dp2045
g13
I4
sg14
I64
sbag0
(g9
g2
Ntp2046
Rp2047
(dp2048
g13
I2
sg14
I65
sbag0
(g9
g2
Ntp2049
Rp2050
(dp2051
g13
I3
sg14
I65
sbag0
(g9
g2
Ntp2052
Rp2053
(dp2054
g13
I4
sg14
I65
sbag0
(g9
g2
Ntp2055
Rp2056
(dp2057
g13
I2
sg14
I66
sbag0
(g9
g2
Ntp2058
Rp2059
(dp2060
g13
I3
sg14
I66
sbag0
(g9
g2
Ntp2061
Rp2062
(dp2063
g13
I4
sg14
I66
sbag0
(g9
g2
Ntp2064
Rp2065
(dp2066
g13
I2
sg14
I67
sbag0
(g9
g2
Ntp2067
Rp2068
(dp2069
g13
I3
sg14
I67
sbag0
(g9
g2
Ntp2070
Rp2071
(dp2072
g13
I4
sg14
I67
sbag0
(g9
g2
Ntp2073
Rp2074
(dp2075
g13
I2
sg14
I68
sbag0
(g9
g2
Ntp2076
Rp2077
(dp2078
g13
I3
sg14
I68
sbag0
(g9
g2
Ntp2079
Rp2080
(dp2081
g13
I4
sg14
I68
sbag0
(g9
g2
Ntp2082
Rp2083
(dp2084
g13
I2
sg14
I69
sbag0
(g9
g2
Ntp2085
Rp2086
(dp2087
g13
I3
sg14
I69
sbag0
(g9
g2
Ntp2088
Rp2089
(dp2090
g13
I4
sg14
I69
sbag0
(g9
g2
Ntp2091
Rp2092
(dp2093
g13
I2
sg14
I70
sbag0
(g9
g2
Ntp2094
Rp2095
(dp2096
g13
I3
sg14
I70
sbag0
(g9
g2
Ntp2097
Rp2098
(dp2099
g13
I4
sg14
I70
sbag0
(g9
g2
Ntp2100
Rp2101
(dp2102
g13
I2
sg14
I71
sbag0
(g9
g2
Ntp2103
Rp2104
(dp2105
g13
I3
sg14
I71
sbag0
(g9
g2
Ntp2106
Rp2107
(dp2108
g13
I4
sg14
I71
sbag0
(g9
g2
Ntp2109
Rp2110
(dp2111
g13
I2
sg14
I72
sbag0
(g9
g2
Ntp2112
Rp2113
(dp2114
g13
I3
sg14
I72
sbag0
(g9
g2
Ntp2115
Rp2116
(dp2117
g13
I4
sg14
I72
sbag0
(g9
g2
Ntp2118
Rp2119
(dp2120
g13
I2
sg14
I73
sbag0
(g9
g2
Ntp2121
Rp2122
(dp2123
g13
I3
sg14
I73
sbag0
(g9
g2
Ntp2124
Rp2125
(dp2126
g13
I4
sg14
I73
sbag0
(g9
g2
Ntp2127
Rp2128
(dp2129
g13
I2
sg14
I74
sbag0
(g9
g2
Ntp2130
Rp2131
(dp2132
g13
I3
sg14
I74
sbag0
(g9
g2
Ntp2133
Rp2134
(dp2135
g13
I4
sg14
I74
sbag0
(g9
g2
Ntp2136
Rp2137
(dp2138
g13
I2
sg14
I75
sbag0
(g9
g2
Ntp2139
Rp2140
(dp2141
g13
I3
sg14
I75
sbag0
(g9
g2
Ntp2142
Rp2143
(dp2144
g13
I4
sg14
I75
sbag0
(g9
g2
Ntp2145
Rp2146
(dp2147
g13
I2
sg14
I76
sbag0
(g9
g2
Ntp2148
Rp2149
(dp2150
g13
I3
sg14
I76
sbag0
(g9
g2
Ntp2151
Rp2152
(dp2153
g13
I4
sg14
I76
sbag0
(g9
g2
Ntp2154
Rp2155
(dp2156
g13
I2
sg14
I77
sbag0
(g9
g2
Ntp2157
Rp2158
(dp2159
g13
I3
sg14
I77
sbag0
(g9
g2
Ntp2160
Rp2161
(dp2162
g13
I4
sg14
I77
sbag0
(csrc.entities.block
Block
p2163
g2
Ntp2164
Rp2165
(dp2166
g13
I27
sg14
I21
sbag0
(g2163
g2
Ntp2167
Rp2168
(dp2169
g13
I27
sg14
I10
sbag0
(g2163
g2
Ntp2170
Rp2171
(dp2172
g13
I32
sg14
I6
sbag0
(g2163
g2
Ntp2173
Rp2174
(dp2175
g13
I35
sg14
I16
sbag0
(g2163
g2
Ntp2176
Rp2177
(dp2178
g13
I36
sg14
I27
sbag0
(g2163
g2
Ntp2179
Rp2180
(dp2181
g13
I43
sg14
I26
sbag0
(g2163
g2
Ntp2182
Rp2183
(dp2184
g13
I43
sg14
I16
sbag0
(g2163
g2
Ntp2185
Rp2186
(dp2187
g13
I43
sg14
I6
sbag0
(g2163
g2
Ntp2188
Rp2189
(dp2190
g13
I18
sg14
I11
sbag0
(g2163
g2
Ntp2191
Rp2192
(dp2193
g13
I12
sg14
I8
sbag0
(g2163
g2
Ntp2194
Rp2195
(dp2196
g13
I14
sg14
I18
sbag0
(g2163
g2
Ntp2197
Rp2198
(dp2199
g13
I19
sg14
I24
sbag0
(g2163
g2
Ntp2200
Rp2201
(dp2202
g13
I29
sg14
I30
sbag0
(g2163
g2
Ntp2203
Rp2204
(dp2205
g13
I33
sg14
I38
sbag0
(g2163
g2
Ntp2206
Rp2207
(dp2208
g13
I40
sg14
I36
sbag0
(g2163
g2
Ntp2209
Rp2210
(dp2211
g13
I44
sg14
I45
sbag0
(g2163
g2
Ntp2212
Rp2213
(dp2214
g13
I37
sg14
I47
sbag0
(g2163
g2
Ntp2215
Rp2216
(dp2217
g13
I29
sg14
I44
sbag0
(g2163
g2
Ntp2218
Rp2219
(dp2220
g13
I22
sg14
I33
sbag0
(g2163
g2
Ntp2221
Rp2222
(dp2223
g13
I20
sg14
I39
sbag0
(g2163
g2
Ntp2224
Rp2225
(dp2226
g13
I13
sg14
I39
sbag0
(g2163
g2
Ntp2227
Rp2228
(dp2229
g13
I9
sg14
I31
sbag0
(g2163
g2
Ntp2230
Rp2231
(dp2232
g13
I41
sg14
I59
sbag0
(g2163
g2
Ntp2233
Rp2234
(dp2235
g13
I34
sg14
I54
sbag0
(g2163
g2
Ntp2236
Rp2237
(dp2238
g13
I44
sg14
I71
sbag0
(g2163
g2
Ntp2239
Rp2240
(dp2241
g13
I37
sg14
I72
sbag0
(g2163
g2
Ntp2242
Rp2243
(dp2244
g13
I33
sg14
I64
sbag0
(g2163
g2
Ntp2245
Rp2246
(dp2247
g13
I26
sg14
I68
sbag0
(g2163
g2
Ntp2248
Rp2249
(dp2250
g13
I21
sg14
I72
sbag0
(g2163
g2
Ntp2251
Rp2252
(dp2253
g13
I17
sg14
I67
sbag0
(g2163
g2
Ntp2254
Rp2255
(dp2256
g13
I8
sg14
I69
sbag0
(g2163
g2
Ntp2257
Rp2258
(dp2259
g13
I12
sg14
I57
sbag0
(g2163
g2
Ntp2260
Rp2261
(dp2262
g13
I17
sg14
I52
sbag0
(g2163
g2
Ntp2263
Rp2264
(dp2265
g13
I25
sg14
I55
sbag0
(csrc.entities.downexit
DownExit
p2266
g2
Ntp2267
Rp2268
(dp2269
g13
I0
sS'linkname'
p2270
S'leveltwo'
p2271
sg14
I37
sbag0
(g2266
g2
Ntp2272
Rp2273
(dp2274
g13
I0
sg2270
g2271
sg14
I38
sbag0
(g2266
g2
Ntp2275
Rp2276
(dp2277
g13
I0
sg2270
g2271
sg14
I39
sbag0
(csrc.entities.msgtrigger
MsgTrigger
p2278
g2
Ntp2279
Rp2280
(dp2281
S'y'
p2282
I5
sS'x'
p2283
I34
sS'message'
p2284
S'OK, that sounds like a lot of bots...'
p2285
sS'uuid'
p2286
L465581149961215L
sS'title'
p2287
S'Wizard says:'
p2288
sbag0
(g2278
g2
Ntp2289
Rp2290
(dp2291
g2282
I6
sg2283
I34
sg2284
g2285
sg2286
L465581149961215L
sg2287
g2288
sbag0
(g2278
g2
Ntp2292
Rp2293
(dp2294
g2282
I7
sg2283
I34
sg2284
g2285
sg2286
L465581149961215L
sg2287
g2288
sbag0
(g2278
g2
Ntp2295
Rp2296
(dp2297
g2282
I8
sg2283
I34
sg2284
g2285
sg2286
L465581149961215L
sg2287
g2288
sbag0
(g2278
g2
Ntp2298
Rp2299
(dp2300
g2282
I5
sg2283
I35
sg2284
g2285
sg2286
L465581149961215L
sg2287
g2288
sbag0
(g2278
g2
Ntp2301
Rp2302
(dp2303
g2282
I6
sg2283
I35
sg2284
g2285
sg2286
L465581149961215L
sg2287
g2288
sbag0
(g2278
g2
Ntp2304
Rp2305
(dp2306
g2282
I7
sg2283
I35
sg2284
g2285
sg2286
L465581149961215L
sg2287
g2288
sbag0
(g2278
g2
Ntp2307
Rp2308
(dp2309
g2282
I8
sg2283
I35
sg2284
g2285
sg2286
L465581149961215L
sg2287
g2288
sbag0
(g2278
g2
Ntp2310
Rp2311
(dp2312
g2282
I5
sg2283
I36
sg2284
g2285
sg2286
L465581149961215L
sg2287
g2288
sbag0
(g2278
g2
Ntp2313
Rp2314
(dp2315
g2282
I6
sg2283
I36
sg2284
g2285
sg2286
L465581149961215L
sg2287
g2288
sbag0
(g2278
g2
Ntp2316
Rp2317
(dp2318
g2282
I7
sg2283
I36
sg2284
g2285
sg2286
L465581149961215L
sg2287
g2288
sbag0
(g2278
g2
Ntp2319
Rp2320
(dp2321
g2282
I8
sg2283
I36
sg2284
g2285
sg2286
L465581149961215L
sg2287
g2288
sbag0
(g2278
g2
Ntp2322
Rp2323
(dp2324
g2282
I5
sg2283
I37
sg2284
g2285
sg2286
L465581149961215L
sg2287
g2288
sbag0
(g2278
g2
Ntp2325
Rp2326
(dp2327
g2282
I6
sg2283
I37
sg2284
g2285
sg2286
L465581149961215L
sg2287
g2288
sbag0
(g2278
g2
Ntp2328
Rp2329
(dp2330
g2282
I7
sg2283
I37
sg2284
g2285
sg2286
L465581149961215L
sg2287
g2288
sbag0
(g2278
g2
Ntp2331
Rp2332
(dp2333
g2282
I8
sg2283
I37
sg2284
g2285
sg2286
L465581149961215L
sg2287
g2288
sbag0
(g2278
g2
Ntp2334
Rp2335
(dp2336
g2282
I5
sg2283
I38
sg2284
g2285
sg2286
L465581149961215L
sg2287
g2288
sbag0
(g2278
g2
Ntp2337
Rp2338
(dp2339
g2282
I6
sg2283
I38
sg2284
g2285
sg2286
L465581149961215L
sg2287
g2288
sbag0
(g2278
g2
Ntp2340
Rp2341
(dp2342
g2282
I7
sg2283
I38
sg2284
g2285
sg2286
L465581149961215L
sg2287
g2288
sbag0
(g2278
g2
Ntp2343
Rp2344
(dp2345
g2282
I8
sg2283
I38
sg2284
g2285
sg2286
L465581149961215L
sg2287
g2288
sbag0
(g2278
g2
Ntp2346
Rp2347
(dp2348
g2282
I5
sg2283
I39
sg2284
g2285
sg2286
L465581149961215L
sg2287
g2288
sbag0
(g2278
g2
Ntp2349
Rp2350
(dp2351
g2282
I6
sg2283
I39
sg2284
g2285
sg2286
L465581149961215L
sg2287
g2288
sbag0
(g2278
g2
Ntp2352
Rp2353
(dp2354
g2282
I7
sg2283
I39
sg2284
g2285
sg2286
L465581149961215L
sg2287
g2288
sbag0
(g2278
g2
Ntp2355
Rp2356
(dp2357
g2282
I8
sg2283
I39
sg2284
g2285
sg2286
L465581149961215L
sg2287
g2288
sbag0
(g2278
g2
Ntp2358
Rp2359
(dp2360
g2282
I5
sg2283
I40
sg2284
g2285
sg2286
L465581149961215L
sg2287
g2288
sbag0
(g2278
g2
Ntp2361
Rp2362
(dp2363
g2282
I6
sg2283
I40
sg2284
g2285
sg2286
L465581149961215L
sg2287
g2288
sbag0
(g2278
g2
Ntp2364
Rp2365
(dp2366
g2282
I7
sg2283
I40
sg2284
g2285
sg2286
L465581149961215L
sg2287
g2288
sbag0
(g2278
g2
Ntp2367
Rp2368
(dp2369
g2282
I8
sg2283
I40
sg2284
g2285
sg2286
L465581149961215L
sg2287
g2288
sbag0
(g2278
g2
Ntp2370
Rp2371
(dp2372
g2282
I5
sg2283
I41
sg2284
g2285
sg2286
L465581149961215L
sg2287
g2288
sbag0
(g2278
g2
Ntp2373
Rp2374
(dp2375
g2282
I6
sg2283
I41
sg2284
g2285
sg2286
L465581149961215L
sg2287
g2288
sbag0
(g2278
g2
Ntp2376
Rp2377
(dp2378
g2282
I7
sg2283
I41
sg2284
g2285
sg2286
L465581149961215L
sg2287
g2288
sbag0
(g2278
g2
Ntp2379
Rp2380
(dp2381
g2282
I8
sg2283
I41
sg2284
g2285
sg2286
L465581149961215L
sg2287
g2288
sbag0
(g2278
g2
Ntp2382
Rp2383
(dp2384
g2282
I5
sg2283
I42
sg2284
g2285
sg2286
L465581149961215L
sg2287
g2288
sbag0
(g2278
g2
Ntp2385
Rp2386
(dp2387
g2282
I6
sg2283
I42
sg2284
g2285
sg2286
L465581149961215L
sg2287
g2288
sbag0
(g2278
g2
Ntp2388
Rp2389
(dp2390
g2282
I7
sg2283
I42
sg2284
g2285
sg2286
L465581149961215L
sg2287
g2288
sbag0
(g2278
g2
Ntp2391
Rp2392
(dp2393
g2282
I8
sg2283
I42
sg2284
g2285
sg2286
L465581149961215L
sg2287
g2288
sbag0
(g2278
g2
Ntp2394
Rp2395
(dp2396
g2282
I5
sg2283
I43
sg2284
g2285
sg2286
L465581149961215L
sg2287
g2288
sbag0
(g2278
g2
Ntp2397
Rp2398
(dp2399
g2282
I6
sg2283
I43
sg2284
g2285
sg2286
L465581149961215L
sg2287
g2288
sbag0
(g2278
g2
Ntp2400
Rp2401
(dp2402
g2282
I7
sg2283
I43
sg2284
g2285
sg2286
L465581149961215L
sg2287
g2288
sbag0
(g2278
g2
Ntp2403
Rp2404
(dp2405
g2282
I8
sg2283
I43
sg2284
g2285
sg2286
L465581149961215L
sg2287
g2288
sbasS'links'
p2406
(dp2407
S'leveltwo'
p2408
(I38
I1
tp2409
ssS'w'
p2410
I80
sS'entities'
p2411
(lp2412
g0
(csrc.entities.electricity
Electricity
p2413
g2
Ntp2414
Rp2415
(dp2416
g13
I12
sg14
I8
sbag0
(g2413
g2
Ntp2417
Rp2418
(dp2419
g13
I18
sg14
I11
sbag0
(g2413
g2
Ntp2420
Rp2421
(dp2422
g13
I11
sg14
I8
sbag0
(g2413
g2
Ntp2423
Rp2424
(dp2425
g13
I11
sg14
I9
sbag0
(g2413
g2
Ntp2426
Rp2427
(dp2428
g13
I12
sg14
I9
sbag0
(g2413
g2
Ntp2429
Rp2430
(dp2431
g13
I13
sg14
I8
sbag0
(g2413
g2
Ntp2432
Rp2433
(dp2434
g13
I13
sg14
I9
sbag0
(g2413
g2
Ntp2435
Rp2436
(dp2437
g13
I11
sg14
I7
sbag0
(g2413
g2
Ntp2438
Rp2439
(dp2440
g13
I12
sg14
I7
sbag0
(g2413
g2
Ntp2441
Rp2442
(dp2443
g13
I13
sg14
I7
sbag0
(g2413
g2
Ntp2444
Rp2445
(dp2446
g13
I17
sg14
I11
sbag0
(g2413
g2
Ntp2447
Rp2448
(dp2449
g13
I17
sg14
I12
sbag0
(g2413
g2
Ntp2450
Rp2451
(dp2452
g13
I18
sg14
I12
sbag0
(g2413
g2
Ntp2453
Rp2454
(dp2455
g13
I19
sg14
I11
sbag0
(g2413
g2
Ntp2456
Rp2457
(dp2458
g13
I19
sg14
I12
sbag0
(g2413
g2
Ntp2459
Rp2460
(dp2461
g13
I17
sg14
I10
sbag0
(g2413
g2
Ntp2462
Rp2463
(dp2464
g13
I18
sg14
I10
sbag0
(g2413
g2
Ntp2465
Rp2466
(dp2467
g13
I19
sg14
I10
sbag0
(g2413
g2
Ntp2468
Rp2469
(dp2470
g13
I13
sg14
I17
sbag0
(g2413
g2
Ntp2471
Rp2472
(dp2473
g13
I14
sg14
I17
sbag0
(g2413
g2
Ntp2474
Rp2475
(dp2476
g13
I15
sg14
I17
sbag0
(g2413
g2
Ntp2477
Rp2478
(dp2479
g13
I13
sg14
I18
sbag0
(g2413
g2
Ntp2480
Rp2481
(dp2482
g13
I14
sg14
I18
sbag0
(g2413
g2
Ntp2483
Rp2484
(dp2485
g13
I15
sg14
I18
sbag0
(g2413
g2
Ntp2486
Rp2487
(dp2488
g13
I13
sg14
I19
sbag0
(g2413
g2
Ntp2489
Rp2490
(dp2491
g13
I14
sg14
I19
sbag0
(g2413
g2
Ntp2492
Rp2493
(dp2494
g13
I15
sg14
I19
sbag0
(g2413
g2
Ntp2495
Rp2496
(dp2497
g13
I18
sg14
I23
sbag0
(g2413
g2
Ntp2498
Rp2499
(dp2500
g13
I19
sg14
I23
sbag0
(g2413
g2
Ntp2501
Rp2502
(dp2503
g13
I20
sg14
I23
sbag0
(g2413
g2
Ntp2504
Rp2505
(dp2506
g13
I18
sg14
I24
sbag0
(g2413
g2
Ntp2507
Rp2508
(dp2509
g13
I19
sg14
I24
sbag0
(g2413
g2
Ntp2510
Rp2511
(dp2512
g13
I20
sg14
I24
sbag0
(g2413
g2
Ntp2513
Rp2514
(dp2515
g13
I18
sg14
I25
sbag0
(g2413
g2
Ntp2516
Rp2517
(dp2518
g13
I19
sg14
I25
sbag0
(g2413
g2
Ntp2519
Rp2520
(dp2521
g13
I20
sg14
I25
sbag0
(g2413
g2
Ntp2522
Rp2523
(dp2524
g13
I26
sg14
I20
sbag0
(g2413
g2
Ntp2525
Rp2526
(dp2527
g13
I27
sg14
I20
sbag0
(g2413
g2
Ntp2528
Rp2529
(dp2530
g13
I28
sg14
I20
sbag0
(g2413
g2
Ntp2531
Rp2532
(dp2533
g13
I26
sg14
I21
sbag0
(g2413
g2
Ntp2534
Rp2535
(dp2536
g13
I27
sg14
I21
sbag0
(g2413
g2
Ntp2537
Rp2538
(dp2539
g13
I28
sg14
I21
sbag0
(g2413
g2
Ntp2540
Rp2541
(dp2542
g13
I26
sg14
I22
sbag0
(g2413
g2
Ntp2543
Rp2544
(dp2545
g13
I27
sg14
I22
sbag0
(g2413
g2
Ntp2546
Rp2547
(dp2548
g13
I28
sg14
I22
sbag0
(g2413
g2
Ntp2549
Rp2550
(dp2551
g13
I26
sg14
I9
sbag0
(g2413
g2
Ntp2552
Rp2553
(dp2554
g13
I27
sg14
I9
sbag0
(g2413
g2
Ntp2555
Rp2556
(dp2557
g13
I28
sg14
I9
sbag0
(g2413
g2
Ntp2558
Rp2559
(dp2560
g13
I26
sg14
I10
sbag0
(g2413
g2
Ntp2561
Rp2562
(dp2563
g13
I27
sg14
I10
sbag0
(g2413
g2
Ntp2564
Rp2565
(dp2566
g13
I28
sg14
I10
sbag0
(g2413
g2
Ntp2567
Rp2568
(dp2569
g13
I26
sg14
I11
sbag0
(g2413
g2
Ntp2570
Rp2571
(dp2572
g13
I27
sg14
I11
sbag0
(g2413
g2
Ntp2573
Rp2574
(dp2575
g13
I28
sg14
I11
sbag0
(g2413
g2
Ntp2576
Rp2577
(dp2578
g13
I31
sg14
I5
sbag0
(g2413
g2
Ntp2579
Rp2580
(dp2581
g13
I32
sg14
I5
sbag0
(g2413
g2
Ntp2582
Rp2583
(dp2584
g13
I33
sg14
I5
sbag0
(g2413
g2
Ntp2585
Rp2586
(dp2587
g13
I31
sg14
I6
sbag0
(g2413
g2
Ntp2588
Rp2589
(dp2590
g13
I32
sg14
I6
sbag0
(g2413
g2
Ntp2591
Rp2592
(dp2593
g13
I33
sg14
I6
sbag0
(g2413
g2
Ntp2594
Rp2595
(dp2596
g13
I31
sg14
I7
sbag0
(g2413
g2
Ntp2597
Rp2598
(dp2599
g13
I32
sg14
I7
sbag0
(g2413
g2
Ntp2600
Rp2601
(dp2602
g13
I33
sg14
I7
sbag0
(g2413
g2
Ntp2603
Rp2604
(dp2605
g13
I34
sg14
I15
sbag0
(g2413
g2
Ntp2606
Rp2607
(dp2608
g13
I35
sg14
I15
sbag0
(g2413
g2
Ntp2609
Rp2610
(dp2611
g13
I36
sg14
I15
sbag0
(g2413
g2
Ntp2612
Rp2613
(dp2614
g13
I34
sg14
I16
sbag0
(g2413
g2
Ntp2615
Rp2616
(dp2617
g13
I35
sg14
I16
sbag0
(g2413
g2
Ntp2618
Rp2619
(dp2620
g13
I36
sg14
I16
sbag0
(g2413
g2
Ntp2621
Rp2622
(dp2623
g13
I34
sg14
I17
sbag0
(g2413
g2
Ntp2624
Rp2625
(dp2626
g13
I35
sg14
I17
sbag0
(g2413
g2
Ntp2627
Rp2628
(dp2629
g13
I36
sg14
I17
sbag0
(g2413
g2
Ntp2630
Rp2631
(dp2632
g13
I42
sg14
I5
sbag0
(g2413
g2
Ntp2633
Rp2634
(dp2635
g13
I43
sg14
I5
sbag0
(g2413
g2
Ntp2636
Rp2637
(dp2638
g13
I44
sg14
I5
sbag0
(g2413
g2
Ntp2639
Rp2640
(dp2641
g13
I42
sg14
I6
sbag0
(g2413
g2
Ntp2642
Rp2643
(dp2644
g13
I43
sg14
I6
sbag0
(g2413
g2
Ntp2645
Rp2646
(dp2647
g13
I44
sg14
I6
sbag0
(g2413
g2
Ntp2648
Rp2649
(dp2650
g13
I42
sg14
I7
sbag0
(g2413
g2
Ntp2651
Rp2652
(dp2653
g13
I43
sg14
I7
sbag0
(g2413
g2
Ntp2654
Rp2655
(dp2656
g13
I44
sg14
I7
sbag0
(g2413
g2
Ntp2657
Rp2658
(dp2659
g13
I42
sg14
I15
sbag0
(g2413
g2
Ntp2660
Rp2661
(dp2662
g13
I43
sg14
I15
sbag0
(g2413
g2
Ntp2663
Rp2664
(dp2665
g13
I44
sg14
I15
sbag0
(g2413
g2
Ntp2666
Rp2667
(dp2668
g13
I42
sg14
I16
sbag0
(g2413
g2
Ntp2669
Rp2670
(dp2671
g13
I43
sg14
I16
sbag0
(g2413
g2
Ntp2672
Rp2673
(dp2674
g13
I44
sg14
I16
sbag0
(g2413
g2
Ntp2675
Rp2676
(dp2677
g13
I42
sg14
I17
sbag0
(g2413
g2
Ntp2678
Rp2679
(dp2680
g13
I43
sg14
I17
sbag0
(g2413
g2
Ntp2681
Rp2682
(dp2683
g13
I44
sg14
I17
sbag0
(g2413
g2
Ntp2684
Rp2685
(dp2686
g13
I42
sg14
I25
sbag0
(g2413
g2
Ntp2687
Rp2688
(dp2689
g13
I43
sg14
I25
sbag0
(g2413
g2
Ntp2690
Rp2691
(dp2692
g13
I44
sg14
I25
sbag0
(g2413
g2
Ntp2693
Rp2694
(dp2695
g13
I42
sg14
I26
sbag0
(g2413
g2
Ntp2696
Rp2697
(dp2698
g13
I43
sg14
I26
sbag0
(g2413
g2
Ntp2699
Rp2700
(dp2701
g13
I44
sg14
I26
sbag0
(g2413
g2
Ntp2702
Rp2703
(dp2704
g13
I42
sg14
I27
sbag0
(g2413
g2
Ntp2705
Rp2706
(dp2707
g13
I43
sg14
I27
sbag0
(g2413
g2
Ntp2708
Rp2709
(dp2710
g13
I44
sg14
I27
sbag0
(g2413
g2
Ntp2711
Rp2712
(dp2713
g13
I35
sg14
I26
sbag0
(g2413
g2
Ntp2714
Rp2715
(dp2716
g13
I36
sg14
I26
sbag0
(g2413
g2
Ntp2717
Rp2718
(dp2719
g13
I37
sg14
I26
sbag0
(g2413
g2
Ntp2720
Rp2721
(dp2722
g13
I35
sg14
I27
sbag0
(g2413
g2
Ntp2723
Rp2724
(dp2725
g13
I36
sg14
I27
sbag0
(g2413
g2
Ntp2726
Rp2727
(dp2728
g13
I37
sg14
I27
sbag0
(g2413
g2
Ntp2729
Rp2730
(dp2731
g13
I35
sg14
I28
sbag0
(g2413
g2
Ntp2732
Rp2733
(dp2734
g13
I36
sg14
I28
sbag0
(g2413
g2
Ntp2735
Rp2736
(dp2737
g13
I37
sg14
I28
sbag0
(g2413
g2
Ntp2738
Rp2739
(dp2740
g13
I28
sg14
I29
sbag0
(g2413
g2
Ntp2741
Rp2742
(dp2743
g13
I29
sg14
I29
sbag0
(g2413
g2
Ntp2744
Rp2745
(dp2746
g13
I30
sg14
I29
sbag0
(g2413
g2
Ntp2747
Rp2748
(dp2749
g13
I28
sg14
I30
sbag0
(g2413
g2
Ntp2750
Rp2751
(dp2752
g13
I29
sg14
I30
sbag0
(g2413
g2
Ntp2753
Rp2754
(dp2755
g13
I30
sg14
I30
sbag0
(g2413
g2
Ntp2756
Rp2757
(dp2758
g13
I28
sg14
I31
sbag0
(g2413
g2
Ntp2759
Rp2760
(dp2761
g13
I29
sg14
I31
sbag0
(g2413
g2
Ntp2762
Rp2763
(dp2764
g13
I30
sg14
I31
sbag0
(g2413
g2
Ntp2765
Rp2766
(dp2767
g13
I21
sg14
I32
sbag0
(g2413
g2
Ntp2768
Rp2769
(dp2770
g13
I22
sg14
I32
sbag0
(g2413
g2
Ntp2771
Rp2772
(dp2773
g13
I23
sg14
I32
sbag0
(g2413
g2
Ntp2774
Rp2775
(dp2776
g13
I21
sg14
I33
sbag0
(g2413
g2
Ntp2777
Rp2778
(dp2779
g13
I22
sg14
I33
sbag0
(g2413
g2
Ntp2780
Rp2781
(dp2782
g13
I23
sg14
I33
sbag0
(g2413
g2
Ntp2783
Rp2784
(dp2785
g13
I21
sg14
I34
sbag0
(g2413
g2
Ntp2786
Rp2787
(dp2788
g13
I22
sg14
I34
sbag0
(g2413
g2
Ntp2789
Rp2790
(dp2791
g13
I23
sg14
I34
sbag0
(g2413
g2
Ntp2792
Rp2793
(dp2794
g13
I19
sg14
I38
sbag0
(g2413
g2
Ntp2795
Rp2796
(dp2797
g13
I20
sg14
I38
sbag0
(g2413
g2
Ntp2798
Rp2799
(dp2800
g13
I21
sg14
I38
sbag0
(g2413
g2
Ntp2801
Rp2802
(dp2803
g13
I19
sg14
I39
sbag0
(g2413
g2
Ntp2804
Rp2805
(dp2806
g13
I20
sg14
I39
sbag0
(g2413
g2
Ntp2807
Rp2808
(dp2809
g13
I21
sg14
I39
sbag0
(g2413
g2
Ntp2810
Rp2811
(dp2812
g13
I19
sg14
I40
sbag0
(g2413
g2
Ntp2813
Rp2814
(dp2815
g13
I20
sg14
I40
sbag0
(g2413
g2
Ntp2816
Rp2817
(dp2818
g13
I21
sg14
I40
sbag0
(g2413
g2
Ntp2819
Rp2820
(dp2821
g13
I12
sg14
I38
sbag0
(g2413
g2
Ntp2822
Rp2823
(dp2824
g13
I13
sg14
I38
sbag0
(g2413
g2
Ntp2825
Rp2826
(dp2827
g13
I14
sg14
I38
sbag0
(g2413
g2
Ntp2828
Rp2829
(dp2830
g13
I12
sg14
I39
sbag0
(g2413
g2
Ntp2831
Rp2832
(dp2833
g13
I13
sg14
I39
sbag0
(g2413
g2
Ntp2834
Rp2835
(dp2836
g13
I14
sg14
I39
sbag0
(g2413
g2
Ntp2837
Rp2838
(dp2839
g13
I12
sg14
I40
sbag0
(g2413
g2
Ntp2840
Rp2841
(dp2842
g13
I13
sg14
I40
sbag0
(g2413
g2
Ntp2843
Rp2844
(dp2845
g13
I14
sg14
I40
sbag0
(g2413
g2
Ntp2846
Rp2847
(dp2848
g13
I8
sg14
I30
sbag0
(g2413
g2
Ntp2849
Rp2850
(dp2851
g13
I9
sg14
I30
sbag0
(g2413
g2
Ntp2852
Rp2853
(dp2854
g13
I10
sg14
I30
sbag0
(g2413
g2
Ntp2855
Rp2856
(dp2857
g13
I8
sg14
I31
sbag0
(g2413
g2
Ntp2858
Rp2859
(dp2860
g13
I9
sg14
I31
sbag0
(g2413
g2
Ntp2861
Rp2862
(dp2863
g13
I10
sg14
I31
sbag0
(g2413
g2
Ntp2864
Rp2865
(dp2866
g13
I8
sg14
I32
sbag0
(g2413
g2
Ntp2867
Rp2868
(dp2869
g13
I9
sg14
I32
sbag0
(g2413
g2
Ntp2870
Rp2871
(dp2872
g13
I10
sg14
I32
sbag0
(g2413
g2
Ntp2873
Rp2874
(dp2875
g13
I28
sg14
I43
sbag0
(g2413
g2
Ntp2876
Rp2877
(dp2878
g13
I29
sg14
I43
sbag0
(g2413
g2
Ntp2879
Rp2880
(dp2881
g13
I30
sg14
I43
sbag0
(g2413
g2
Ntp2882
Rp2883
(dp2884
g13
I28
sg14
I44
sbag0
(g2413
g2
Ntp2885
Rp2886
(dp2887
g13
I29
sg14
I44
sbag0
(g2413
g2
Ntp2888
Rp2889
(dp2890
g13
I30
sg14
I44
sbag0
(g2413
g2
Ntp2891
Rp2892
(dp2893
g13
I28
sg14
I45
sbag0
(g2413
g2
Ntp2894
Rp2895
(dp2896
g13
I29
sg14
I45
sbag0
(g2413
g2
Ntp2897
Rp2898
(dp2899
g13
I30
sg14
I45
sbag0
(g2413
g2
Ntp2900
Rp2901
(dp2902
g13
I32
sg14
I37
sbag0
(g2413
g2
Ntp2903
Rp2904
(dp2905
g13
I33
sg14
I37
sbag0
(g2413
g2
Ntp2906
Rp2907
(dp2908
g13
I34
sg14
I37
sbag0
(g2413
g2
Ntp2909
Rp2910
(dp2911
g13
I32
sg14
I38
sbag0
(g2413
g2
Ntp2912
Rp2913
(dp2914
g13
I33
sg14
I38
sbag0
(g2413
g2
Ntp2915
Rp2916
(dp2917
g13
I34
sg14
I38
sbag0
(g2413
g2
Ntp2918
Rp2919
(dp2920
g13
I32
sg14
I39
sbag0
(g2413
g2
Ntp2921
Rp2922
(dp2923
g13
I33
sg14
I39
sbag0
(g2413
g2
Ntp2924
Rp2925
(dp2926
g13
I34
sg14
I39
sbag0
(g2413
g2
Ntp2927
Rp2928
(dp2929
g13
I39
sg14
I35
sbag0
(g2413
g2
Ntp2930
Rp2931
(dp2932
g13
I40
sg14
I35
sbag0
(g2413
g2
Ntp2933
Rp2934
(dp2935
g13
I41
sg14
I35
sbag0
(g2413
g2
Ntp2936
Rp2937
(dp2938
g13
I39
sg14
I36
sbag0
(g2413
g2
Ntp2939
Rp2940
(dp2941
g13
I40
sg14
I36
sbag0
(g2413
g2
Ntp2942
Rp2943
(dp2944
g13
I41
sg14
I36
sbag0
(g2413
g2
Ntp2945
Rp2946
(dp2947
g13
I39
sg14
I37
sbag0
(g2413
g2
Ntp2948
Rp2949
(dp2950
g13
I40
sg14
I37
sbag0
(g2413
g2
Ntp2951
Rp2952
(dp2953
g13
I41
sg14
I37
sbag0
(g2413
g2
Ntp2954
Rp2955
(dp2956
g13
I43
sg14
I44
sbag0
(g2413
g2
Ntp2957
Rp2958
(dp2959
g13
I44
sg14
I44
sbag0
(g2413
g2
Ntp2960
Rp2961
(dp2962
g13
I45
sg14
I44
sbag0
(g2413
g2
Ntp2963
Rp2964
(dp2965
g13
I43
sg14
I45
sbag0
(g2413
g2
Ntp2966
Rp2967
(dp2968
g13
I44
sg14
I45
sbag0
(g2413
g2
Ntp2969
Rp2970
(dp2971
g13
I45
sg14
I45
sbag0
(g2413
g2
Ntp2972
Rp2973
(dp2974
g13
I43
sg14
I46
sbag0
(g2413
g2
Ntp2975
Rp2976
(dp2977
g13
I44
sg14
I46
sbag0
(g2413
g2
Ntp2978
Rp2979
(dp2980
g13
I45
sg14
I46
sbag0
(g2413
g2
Ntp2981
Rp2982
(dp2983
g13
I36
sg14
I46
sbag0
(g2413
g2
Ntp2984
Rp2985
(dp2986
g13
I37
sg14
I46
sbag0
(g2413
g2
Ntp2987
Rp2988
(dp2989
g13
I38
sg14
I46
sbag0
(g2413
g2
Ntp2990
Rp2991
(dp2992
g13
I36
sg14
I47
sbag0
(g2413
g2
Ntp2993
Rp2994
(dp2995
g13
I37
sg14
I47
sbag0
(g2413
g2
Ntp2996
Rp2997
(dp2998
g13
I38
sg14
I47
sbag0
(g2413
g2
Ntp2999
Rp3000
(dp3001
g13
I36
sg14
I48
sbag0
(g2413
g2
Ntp3002
Rp3003
(dp3004
g13
I37
sg14
I48
sbag0
(g2413
g2
Ntp3005
Rp3006
(dp3007
g13
I38
sg14
I48
sbag0
(g2413
g2
Ntp3008
Rp3009
(dp3010
g13
I33
sg14
I53
sbag0
(g2413
g2
Ntp3011
Rp3012
(dp3013
g13
I34
sg14
I53
sbag0
(g2413
g2
Ntp3014
Rp3015
(dp3016
g13
I35
sg14
I53
sbag0
(g2413
g2
Ntp3017
Rp3018
(dp3019
g13
I33
sg14
I54
sbag0
(g2413
g2
Ntp3020
Rp3021
(dp3022
g13
I34
sg14
I54
sbag0
(g2413
g2
Ntp3023
Rp3024
(dp3025
g13
I35
sg14
I54
sbag0
(g2413
g2
Ntp3026
Rp3027
(dp3028
g13
I33
sg14
I55
sbag0
(g2413
g2
Ntp3029
Rp3030
(dp3031
g13
I34
sg14
I55
sbag0
(g2413
g2
Ntp3032
Rp3033
(dp3034
g13
I35
sg14
I55
sbag0
(g2413
g2
Ntp3035
Rp3036
(dp3037
g13
I40
sg14
I58
sbag0
(g2413
g2
Ntp3038
Rp3039
(dp3040
g13
I41
sg14
I58
sbag0
(g2413
g2
Ntp3041
Rp3042
(dp3043
g13
I42
sg14
I58
sbag0
(g2413
g2
Ntp3044
Rp3045
(dp3046
g13
I40
sg14
I59
sbag0
(g2413
g2
Ntp3047
Rp3048
(dp3049
g13
I41
sg14
I59
sbag0
(g2413
g2
Ntp3050
Rp3051
(dp3052
g13
I42
sg14
I59
sbag0
(g2413
g2
Ntp3053
Rp3054
(dp3055
g13
I40
sg14
I60
sbag0
(g2413
g2
Ntp3056
Rp3057
(dp3058
g13
I41
sg14
I60
sbag0
(g2413
g2
Ntp3059
Rp3060
(dp3061
g13
I42
sg14
I60
sbag0
(g2413
g2
Ntp3062
Rp3063
(dp3064
g13
I32
sg14
I63
sbag0
(g2413
g2
Ntp3065
Rp3066
(dp3067
g13
I33
sg14
I63
sbag0
(g2413
g2
Ntp3068
Rp3069
(dp3070
g13
I34
sg14
I63
sbag0
(g2413
g2
Ntp3071
Rp3072
(dp3073
g13
I32
sg14
I64
sbag0
(g2413
g2
Ntp3074
Rp3075
(dp3076
g13
I33
sg14
I64
sbag0
(g2413
g2
Ntp3077
Rp3078
(dp3079
g13
I34
sg14
I64
sbag0
(g2413
g2
Ntp3080
Rp3081
(dp3082
g13
I32
sg14
I65
sbag0
(g2413
g2
Ntp3083
Rp3084
(dp3085
g13
I33
sg14
I65
sbag0
(g2413
g2
Ntp3086
Rp3087
(dp3088
g13
I34
sg14
I65
sbag0
(g2413
g2
Ntp3089
Rp3090
(dp3091
g13
I25
sg14
I67
sbag0
(g2413
g2
Ntp3092
Rp3093
(dp3094
g13
I26
sg14
I67
sbag0
(g2413
g2
Ntp3095
Rp3096
(dp3097
g13
I27
sg14
I67
sbag0
(g2413
g2
Ntp3098
Rp3099
(dp3100
g13
I25
sg14
I68
sbag0
(g2413
g2
Ntp3101
Rp3102
(dp3103
g13
I26
sg14
I68
sbag0
(g2413
g2
Ntp3104
Rp3105
(dp3106
g13
I27
sg14
I68
sbag0
(g2413
g2
Ntp3107
Rp3108
(dp3109
g13
I25
sg14
I69
sbag0
(g2413
g2
Ntp3110
Rp3111
(dp3112
g13
I26
sg14
I69
sbag0
(g2413
g2
Ntp3113
Rp3114
(dp3115
g13
I27
sg14
I69
sbag0
(g2413
g2
Ntp3116
Rp3117
(dp3118
g13
I24
sg14
I54
sbag0
(g2413
g2
Ntp3119
Rp3120
(dp3121
g13
I25
sg14
I54
sbag0
(g2413
g2
Ntp3122
Rp3123
(dp3124
g13
I26
sg14
I54
sbag0
(g2413
g2
Ntp3125
Rp3126
(dp3127
g13
I24
sg14
I55
sbag0
(g2413
g2
Ntp3128
Rp3129
(dp3130
g13
I25
sg14
I55
sbag0
(g2413
g2
Ntp3131
Rp3132
(dp3133
g13
I26
sg14
I55
sbag0
(g2413
g2
Ntp3134
Rp3135
(dp3136
g13
I24
sg14
I56
sbag0
(g2413
g2
Ntp3137
Rp3138
(dp3139
g13
I25
sg14
I56
sbag0
(g2413
g2
Ntp3140
Rp3141
(dp3142
g13
I26
sg14
I56
sbag0
(g2413
g2
Ntp3143
Rp3144
(dp3145
g13
I16
sg14
I51
sbag0
(g2413
g2
Ntp3146
Rp3147
(dp3148
g13
I17
sg14
I51
sbag0
(g2413
g2
Ntp3149
Rp3150
(dp3151
g13
I18
sg14
I51
sbag0
(g2413
g2
Ntp3152
Rp3153
(dp3154
g13
I16
sg14
I52
sbag0
(g2413
g2
Ntp3155
Rp3156
(dp3157
g13
I17
sg14
I52
sbag0
(g2413
g2
Ntp3158
Rp3159
(dp3160
g13
I18
sg14
I52
sbag0
(g2413
g2
Ntp3161
Rp3162
(dp3163
g13
I16
sg14
I53
sbag0
(g2413
g2
Ntp3164
Rp3165
(dp3166
g13
I17
sg14
I53
sbag0
(g2413
g2
Ntp3167
Rp3168
(dp3169
g13
I18
sg14
I53
sbag0
(g2413
g2
Ntp3170
Rp3171
(dp3172
g13
I11
sg14
I56
sbag0
(g2413
g2
Ntp3173
Rp3174
(dp3175
g13
I12
sg14
I56
sbag0
(g2413
g2
Ntp3176
Rp3177
(dp3178
g13
I13
sg14
I56
sbag0
(g2413
g2
Ntp3179
Rp3180
(dp3181
g13
I11
sg14
I57
sbag0
(g2413
g2
Ntp3182
Rp3183
(dp3184
g13
I12
sg14
I57
sbag0
(g2413
g2
Ntp3185
Rp3186
(dp3187
g13
I13
sg14
I57
sbag0
(g2413
g2
Ntp3188
Rp3189
(dp3190
g13
I11
sg14
I58
sbag0
(g2413
g2
Ntp3191
Rp3192
(dp3193
g13
I12
sg14
I58
sbag0
(g2413
g2
Ntp3194
Rp3195
(dp3196
g13
I13
sg14
I58
sbag0
(g2413
g2
Ntp3197
Rp3198
(dp3199
g13
I7
sg14
I68
sbag0
(g2413
g2
Ntp3200
Rp3201
(dp3202
g13
I8
sg14
I68
sbag0
(g2413
g2
Ntp3203
Rp3204
(dp3205
g13
I9
sg14
I68
sbag0
(g2413
g2
Ntp3206
Rp3207
(dp3208
g13
I7
sg14
I69
sbag0
(g2413
g2
Ntp3209
Rp3210
(dp3211
g13
I8
sg14
I69
sbag0
(g2413
g2
Ntp3212
Rp3213
(dp3214
g13
I9
sg14
I69
sbag0
(g2413
g2
Ntp3215
Rp3216
(dp3217
g13
I7
sg14
I70
sbag0
(g2413
g2
Ntp3218
Rp3219
(dp3220
g13
I8
sg14
I70
sbag0
(g2413
g2
Ntp3221
Rp3222
(dp3223
g13
I9
sg14
I70
sbag0
(g2413
g2
Ntp3224
Rp3225
(dp3226
g13
I16
sg14
I66
sbag0
(g2413
g2
Ntp3227
Rp3228
(dp3229
g13
I17
sg14
I66
sbag0
(g2413
g2
Ntp3230
Rp3231
(dp3232
g13
I18
sg14
I66
sbag0
(g2413
g2
Ntp3233
Rp3234
(dp3235
g13
I16
sg14
I67
sbag0
(g2413
g2
Ntp3236
Rp3237
(dp3238
g13
I17
sg14
I67
sbag0
(g2413
g2
Ntp3239
Rp3240
(dp3241
g13
I18
sg14
I67
sbag0
(g2413
g2
Ntp3242
Rp3243
(dp3244
g13
I16
sg14
I68
sbag0
(g2413
g2
Ntp3245
Rp3246
(dp3247
g13
I17
sg14
I68
sbag0
(g2413
g2
Ntp3248
Rp3249
(dp3250
g13
I18
sg14
I68
sbag0
(g2413
g2
Ntp3251
Rp3252
(dp3253
g13
I20
sg14
I71
sbag0
(g2413
g2
Ntp3254
Rp3255
(dp3256
g13
I21
sg14
I71
sbag0
(g2413
g2
Ntp3257
Rp3258
(dp3259
g13
I22
sg14
I71
sbag0
(g2413
g2
Ntp3260
Rp3261
(dp3262
g13
I20
sg14
I72
sbag0
(g2413
g2
Ntp3263
Rp3264
(dp3265
g13
I21
sg14
I72
sbag0
(g2413
g2
Ntp3266
Rp3267
(dp3268
g13
I22
sg14
I72
sbag0
(g2413
g2
Ntp3269
Rp3270
(dp3271
g13
I20
sg14
I73
sbag0
(g2413
g2
Ntp3272
Rp3273
(dp3274
g13
I21
sg14
I73
sbag0
(g2413
g2
Ntp3275
Rp3276
(dp3277
g13
I22
sg14
I73
sbag0
(g2413
g2
Ntp3278
Rp3279
(dp3280
g13
I36
sg14
I71
sbag0
(g2413
g2
Ntp3281
Rp3282
(dp3283
g13
I37
sg14
I71
sbag0
(g2413
g2
Ntp3284
Rp3285
(dp3286
g13
I38
sg14
I71
sbag0
(g2413
g2
Ntp3287
Rp3288
(dp3289
g13
I36
sg14
I72
sbag0
(g2413
g2
Ntp3290
Rp3291
(dp3292
g13
I37
sg14
I72
sbag0
(g2413
g2
Ntp3293
Rp3294
(dp3295
g13
I38
sg14
I72
sbag0
(g2413
g2
Ntp3296
Rp3297
(dp3298
g13
I36
sg14
I73
sbag0
(g2413
g2
Ntp3299
Rp3300
(dp3301
g13
I37
sg14
I73
sbag0
(g2413
g2
Ntp3302
Rp3303
(dp3304
g13
I38
sg14
I73
sbag0
(g2413
g2
Ntp3305
Rp3306
(dp3307
g13
I43
sg14
I70
sbag0
(g2413
g2
Ntp3308
Rp3309
(dp3310
g13
I44
sg14
I70
sbag0
(g2413
g2
Ntp3311
Rp3312
(dp3313
g13
I45
sg14
I70
sbag0
(g2413
g2
Ntp3314
Rp3315
(dp3316
g13
I43
sg14
I71
sbag0
(g2413
g2
Ntp3317
Rp3318
(dp3319
g13
I44
sg14
I71
sbag0
(g2413
g2
Ntp3320
Rp3321
(dp3322
g13
I45
sg14
I71
sbag0
(g2413
g2
Ntp3323
Rp3324
(dp3325
g13
I43
sg14
I72
sbag0
(g2413
g2
Ntp3326
Rp3327
(dp3328
g13
I44
sg14
I72
sbag0
(g2413
g2
Ntp3329
Rp3330
(dp3331
g13
I45
sg14
I72
sbag0
(csrc.entities.keyguard
KeyGuard
p3332
g2
Ntp3333
Rp3334
(dp3335
g13
I38
sg14
I11
sS'uuid'
p3336
L650332576574517L
sbag0
(csrc.entities.robotguard
RobotGuard
p3337
g2
Ntp3338
Rp3339
(dp3340
g13
I26
sg14
I6
sg3336
L355720921244453L
sbag0
(g3337
g2
Ntp3341
Rp3342
(dp3343
g13
I39
sg14
I27
sg3336
L674931430457005L
sbag0
(g3337
g2
Ntp3344
Rp3345
(dp3346
g13
I29
sg14
I35
sg3336
L708722291252044L
sbag0
(g3337
g2
Ntp3347
Rp3348
(dp3349
g13
I40
sg14
I47
sg3336
L725864455497342L
sbag0
(g3337
g2
Ntp3350
Rp3351
(dp3352
g13
I43
sg14
I55
sg3336
L426809822143752L
sbag0
(g3337
g2
Ntp3353
Rp3354
(dp3355
g13
I19
sg14
I57
sg3336
L567504124910533L
sbag0
(g3337
g2
Ntp3356
Rp3357
(dp3358
g13
I25
sg14
I61
sg3336
L657845604273726L
sbag0
(g3337
g2
Ntp3359
Rp3360
(dp3361
g13
I8
sg14
I65
sg3336
L352330649118636L
sbag0
(g3337
g2
Ntp3362
Rp3363
(dp3364
g13
I15
sg14
I74
sg3336
L492063838823553L
sbag0
(g3337
g2
Ntp3365
Rp3366
(dp3367
g13
I30
sg14
I73
sg3336
L159718147119052L
sbag0
(g3337
g2
Ntp3368
Rp3369
(dp3370
g13
I40
sg14
I68
sg3336
L331615127717406L
sbag0
(g3337
g2
Ntp3371
Rp3372
(dp3373
g13
I10
sg14
I22
sg3336
L857408333225853L
sbag0
(g3337
g2
Ntp3374
Rp3375
(dp3376
g13
I19
sg14
I20
sg3336
L821519034251796L
sbag0
(g3337
g2
Ntp3377
Rp3378
(dp3379
g13
I7
sg14
I10
sg3336
L548736272451703L
sbag0
(g3337
g2
Ntp3380
Rp3381
(dp3382
g13
I16
sg14
I4
sg3336
L718183332617146L
sbag0
(csrc.entities.door
Door
p3383
g2
Ntp3384
Rp3385
(dp3386
g13
I2
sg14
I37
sg3336
L131050624312425L
sbag0
(g3383
g2
Ntp3387
Rp3388
(dp3389
g13
I2
sg14
I38
sg3336
L131050624312425L
sbag0
(g3383
g2
Ntp3390
Rp3391
(dp3392
g13
I2
sg14
I39
sg3336
L131050624312425L
sbag0
(g3383
g2
Ntp3393
Rp3394
(dp3395
g13
I3
sg14
I37
sg3336
L161936130419374L
sbag0
(g3383
g2
Ntp3396
Rp3397
(dp3398
g13
I3
sg14
I38
sg3336
L161936130419374L
sbag0
(g3383
g2
Ntp3399
Rp3400
(dp3401
g13
I3
sg14
I39
sg3336
L161936130419374L
sbag0
(g3383
g2
Ntp3402
Rp3403
(dp3404
g13
I4
sg14
I37
sg3336
L690415355665735L
sbag0
(g3383
g2
Ntp3405
Rp3406
(dp3407
g13
I4
sg14
I38
sg3336
L690415355665735L
sbag0
(g3383
g2
Ntp3408
Rp3409
(dp3410
g13
I4
sg14
I39
sg3336
L690415355665735L
sbag0
(g3337
g2
Ntp3411
Rp3412
(dp3413
g2282
I16
sg2283
I32
sg2286
L109625025354929L
sbag0
(g3337
g2
Ntp3414
Rp3415
(dp3416
g2282
I11
sg2283
I46
sg2286
L143289079675698L
sbasb.