ccopy_reg
_reconstructor
p0
(csrc.level
Level
p1
c__builtin__
object
p2
Ntp3
Rp4
(dp5
S'h'
p6
I50
sS'tiles'
p7
(lp8
g0
(csrc.entities.upexit
UpExit
p9
g2
Ntp10
Rp11
(dp12
S'y'
p13
I23
sS'linkname'
p14
S'leveltwo'
p15
sS'x'
p16
I78
sbag0
(g9
g2
Ntp17
Rp18
(dp19
g13
I24
sg14
g15
sg16
I78
sbag0
(g9
g2
Ntp20
Rp21
(dp22
g13
I25
sg14
g15
sg16
I78
sbag0
(g9
g2
Ntp23
Rp24
(dp25
g13
I26
sg14
g15
sg16
I78
sbag0
(g9
g2
Ntp26
Rp27
(dp28
g13
I27
sg14
g15
sg16
I78
sbag0
(g9
g2
Ntp29
Rp30
(dp31
g13
I23
sg14
g15
sg16
I79
sbag0
(g9
g2
Ntp32
Rp33
(dp34
g13
I24
sg14
g15
sg16
I79
sbag0
(g9
g2
Ntp35
Rp36
(dp37
g13
I25
sg14
g15
sg16
I79
sbag0
(g9
g2
Ntp38
Rp39
(dp40
g13
I26
sg14
g15
sg16
I79
sbag0
(g9
g2
Ntp41
Rp42
(dp43
g13
I27
sg14
g15
sg16
I79
sbag0
(csrc.entities.stonewall
StoneWall
p44
g2
Ntp45
Rp46
(dp47
g13
I4
sg16
I0
sbag0
(g44
g2
Ntp48
Rp49
(dp50
g13
I5
sg16
I0
sbag0
(g44
g2
Ntp51
Rp52
(dp53
g13
I6
sg16
I0
sbag0
(g44
g2
Ntp54
Rp55
(dp56
g13
I7
sg16
I0
sbag0
(g44
g2
Ntp57
Rp58
(dp59
g13
I8
sg16
I0
sbag0
(g44
g2
Ntp60
Rp61
(dp62
g13
I9
sg16
I0
sbag0
(g44
g2
Ntp63
Rp64
(dp65
g13
I10
sg16
I0
sbag0
(g44
g2
Ntp66
Rp67
(dp68
g13
I11
sg16
I0
sbag0
(g44
g2
Ntp69
Rp70
(dp71
g13
I12
sg16
I0
sbag0
(g44
g2
Ntp72
Rp73
(dp74
g13
I13
sg16
I0
sbag0
(g44
g2
Ntp75
Rp76
(dp77
g13
I14
sg16
I0
sbag0
(g44
g2
Ntp78
Rp79
(dp80
g13
I15
sg16
I0
sbag0
(g44
g2
Ntp81
Rp82
(dp83
g13
I16
sg16
I0
sbag0
(g44
g2
Ntp84
Rp85
(dp86
g13
I17
sg16
I0
sbag0
(g44
g2
Ntp87
Rp88
(dp89
g13
I18
sg16
I0
sbag0
(g44
g2
Ntp90
Rp91
(dp92
g13
I19
sg16
I0
sbag0
(g44
g2
Ntp93
Rp94
(dp95
g13
I20
sg16
I0
sbag0
(g44
g2
Ntp96
Rp97
(dp98
g13
I21
sg16
I0
sbag0
(g44
g2
Ntp99
Rp100
(dp101
g13
I22
sg16
I0
sbag0
(g44
g2
Ntp102
Rp103
(dp104
g13
I23
sg16
I0
sbag0
(g44
g2
Ntp105
Rp106
(dp107
g13
I24
sg16
I0
sbag0
(g44
g2
Ntp108
Rp109
(dp110
g13
I25
sg16
I0
sbag0
(g44
g2
Ntp111
Rp112
(dp113
g13
I26
sg16
I0
sbag0
(g44
g2
Ntp114
Rp115
(dp116
g13
I27
sg16
I0
sbag0
(g44
g2
Ntp117
Rp118
(dp119
g13
I28
sg16
I0
sbag0
(g44
g2
Ntp120
Rp121
(dp122
g13
I29
sg16
I0
sbag0
(g44
g2
Ntp123
Rp124
(dp125
g13
I30
sg16
I0
sbag0
(g44
g2
Ntp126
Rp127
(dp128
g13
I31
sg16
I0
sbag0
(g44
g2
Ntp129
Rp130
(dp131
g13
I32
sg16
I0
sbag0
(g44
g2
Ntp132
Rp133
(dp134
g13
I33
sg16
I0
sbag0
(g44
g2
Ntp135
Rp136
(dp137
g13
I34
sg16
I0
sbag0
(g44
g2
Ntp138
Rp139
(dp140
g13
I35
sg16
I0
sbag0
(g44
g2
Ntp141
Rp142
(dp143
g13
I36
sg16
I0
sbag0
(g44
g2
Ntp144
Rp145
(dp146
g13
I37
sg16
I0
sbag0
(g44
g2
Ntp147
Rp148
(dp149
g13
I38
sg16
I0
sbag0
(g44
g2
Ntp150
Rp151
(dp152
g13
I39
sg16
I0
sbag0
(g44
g2
Ntp153
Rp154
(dp155
g13
I40
sg16
I0
sbag0
(g44
g2
Ntp156
Rp157
(dp158
g13
I41
sg16
I0
sbag0
(g44
g2
Ntp159
Rp160
(dp161
g13
I42
sg16
I0
sbag0
(g44
g2
Ntp162
Rp163
(dp164
g13
I43
sg16
I0
sbag0
(g44
g2
Ntp165
Rp166
(dp167
g13
I44
sg16
I0
sbag0
(g44
g2
Ntp168
Rp169
(dp170
g13
I45
sg16
I0
sbag0
(g44
g2
Ntp171
Rp172
(dp173
g13
I4
sg16
I1
sbag0
(g44
g2
Ntp174
Rp175
(dp176
g13
I5
sg16
I1
sbag0
(g44
g2
Ntp177
Rp178
(dp179
g13
I6
sg16
I1
sbag0
(g44
g2
Ntp180
Rp181
(dp182
g13
I7
sg16
I1
sbag0
(g44
g2
Ntp183
Rp184
(dp185
g13
I8
sg16
I1
sbag0
(g44
g2
Ntp186
Rp187
(dp188
g13
I9
sg16
I1
sbag0
(g44
g2
Ntp189
Rp190
(dp191
g13
I10
sg16
I1
sbag0
(g44
g2
Ntp192
Rp193
(dp194
g13
I11
sg16
I1
sbag0
(g44
g2
Ntp195
Rp196
(dp197
g13
I12
sg16
I1
sbag0
(g44
g2
Ntp198
Rp199
(dp200
g13
I13
sg16
I1
sbag0
(g44
g2
Ntp201
Rp202
(dp203
g13
I14
sg16
I1
sbag0
(g44
g2
Ntp204
Rp205
(dp206
g13
I15
sg16
I1
sbag0
(g44
g2
Ntp207
Rp208
(dp209
g13
I16
sg16
I1
sbag0
(g44
g2
Ntp210
Rp211
(dp212
g13
I17
sg16
I1
sbag0
(g44
g2
Ntp213
Rp214
(dp215
g13
I18
sg16
I1
sbag0
(g44
g2
Ntp216
Rp217
(dp218
g13
I19
sg16
I1
sbag0
(g44
g2
Ntp219
Rp220
(dp221
g13
I20
sg16
I1
sbag0
(g44
g2
Ntp222
Rp223
(dp224
g13
I21
sg16
I1
sbag0
(g44
g2
Ntp225
Rp226
(dp227
g13
I22
sg16
I1
sbag0
(g44
g2
Ntp228
Rp229
(dp230
g13
I23
sg16
I1
sbag0
(g44
g2
Ntp231
Rp232
(dp233
g13
I24
sg16
I1
sbag0
(g44
g2
Ntp234
Rp235
(dp236
g13
I25
sg16
I1
sbag0
(g44
g2
Ntp237
Rp238
(dp239
g13
I26
sg16
I1
sbag0
(g44
g2
Ntp240
Rp241
(dp242
g13
I27
sg16
I1
sbag0
(g44
g2
Ntp243
Rp244
(dp245
g13
I28
sg16
I1
sbag0
(g44
g2
Ntp246
Rp247
(dp248
g13
I29
sg16
I1
sbag0
(g44
g2
Ntp249
Rp250
(dp251
g13
I30
sg16
I1
sbag0
(g44
g2
Ntp252
Rp253
(dp254
g13
I31
sg16
I1
sbag0
(g44
g2
Ntp255
Rp256
(dp257
g13
I32
sg16
I1
sbag0
(g44
g2
Ntp258
Rp259
(dp260
g13
I33
sg16
I1
sbag0
(g44
g2
Ntp261
Rp262
(dp263
g13
I34
sg16
I1
sbag0
(g44
g2
Ntp264
Rp265
(dp266
g13
I35
sg16
I1
sbag0
(g44
g2
Ntp267
Rp268
(dp269
g13
I36
sg16
I1
sbag0
(g44
g2
Ntp270
Rp271
(dp272
g13
I37
sg16
I1
sbag0
(g44
g2
Ntp273
Rp274
(dp275
g13
I38
sg16
I1
sbag0
(g44
g2
Ntp276
Rp277
(dp278
g13
I39
sg16
I1
sbag0
(g44
g2
Ntp279
Rp280
(dp281
g13
I40
sg16
I1
sbag0
(g44
g2
Ntp282
Rp283
(dp284
g13
I41
sg16
I1
sbag0
(g44
g2
Ntp285
Rp286
(dp287
g13
I42
sg16
I1
sbag0
(g44
g2
Ntp288
Rp289
(dp290
g13
I43
sg16
I1
sbag0
(g44
g2
Ntp291
Rp292
(dp293
g13
I44
sg16
I1
sbag0
(g44
g2
Ntp294
Rp295
(dp296
g13
I45
sg16
I1
sbag0
(g44
g2
Ntp297
Rp298
(dp299
g13
I4
sg16
I2
sbag0
(g44
g2
Ntp300
Rp301
(dp302
g13
I5
sg16
I2
sbag0
(g44
g2
Ntp303
Rp304
(dp305
g13
I6
sg16
I2
sbag0
(g44
g2
Ntp306
Rp307
(dp308
g13
I7
sg16
I2
sbag0
(g44
g2
Ntp309
Rp310
(dp311
g13
I8
sg16
I2
sbag0
(g44
g2
Ntp312
Rp313
(dp314
g13
I9
sg16
I2
sbag0
(g44
g2
Ntp315
Rp316
(dp317
g13
I10
sg16
I2
sbag0
(g44
g2
Ntp318
Rp319
(dp320
g13
I11
sg16
I2
sbag0
(g44
g2
Ntp321
Rp322
(dp323
g13
I12
sg16
I2
sbag0
(g44
g2
Ntp324
Rp325
(dp326
g13
I13
sg16
I2
sbag0
(g44
g2
Ntp327
Rp328
(dp329
g13
I14
sg16
I2
sbag0
(g44
g2
Ntp330
Rp331
(dp332
g13
I15
sg16
I2
sbag0
(g44
g2
Ntp333
Rp334
(dp335
g13
I16
sg16
I2
sbag0
(g44
g2
Ntp336
Rp337
(dp338
g13
I17
sg16
I2
sbag0
(g44
g2
Ntp339
Rp340
(dp341
g13
I18
sg16
I2
sbag0
(g44
g2
Ntp342
Rp343
(dp344
g13
I19
sg16
I2
sbag0
(g44
g2
Ntp345
Rp346
(dp347
g13
I20
sg16
I2
sbag0
(g44
g2
Ntp348
Rp349
(dp350
g13
I21
sg16
I2
sbag0
(g44
g2
Ntp351
Rp352
(dp353
g13
I22
sg16
I2
sbag0
(g44
g2
Ntp354
Rp355
(dp356
g13
I23
sg16
I2
sbag0
(g44
g2
Ntp357
Rp358
(dp359
g13
I24
sg16
I2
sbag0
(g44
g2
Ntp360
Rp361
(dp362
g13
I25
sg16
I2
sbag0
(g44
g2
Ntp363
Rp364
(dp365
g13
I26
sg16
I2
sbag0
(g44
g2
Ntp366
Rp367
(dp368
g13
I27
sg16
I2
sbag0
(g44
g2
Ntp369
Rp370
(dp371
g13
I28
sg16
I2
sbag0
(g44
g2
Ntp372
Rp373
(dp374
g13
I29
sg16
I2
sbag0
(g44
g2
Ntp375
Rp376
(dp377
g13
I30
sg16
I2
sbag0
(g44
g2
Ntp378
Rp379
(dp380
g13
I31
sg16
I2
sbag0
(g44
g2
Ntp381
Rp382
(dp383
g13
I32
sg16
I2
sbag0
(g44
g2
Ntp384
Rp385
(dp386
g13
I33
sg16
I2
sbag0
(g44
g2
Ntp387
Rp388
(dp389
g13
I34
sg16
I2
sbag0
(g44
g2
Ntp390
Rp391
(dp392
g13
I35
sg16
I2
sbag0
(g44
g2
Ntp393
Rp394
(dp395
g13
I36
sg16
I2
sbag0
(g44
g2
Ntp396
Rp397
(dp398
g13
I37
sg16
I2
sbag0
(g44
g2
Ntp399
Rp400
(dp401
g13
I38
sg16
I2
sbag0
(g44
g2
Ntp402
Rp403
(dp404
g13
I39
sg16
I2
sbag0
(g44
g2
Ntp405
Rp406
(dp407
g13
I40
sg16
I2
sbag0
(g44
g2
Ntp408
Rp409
(dp410
g13
I41
sg16
I2
sbag0
(g44
g2
Ntp411
Rp412
(dp413
g13
I42
sg16
I2
sbag0
(g44
g2
Ntp414
Rp415
(dp416
g13
I43
sg16
I2
sbag0
(g44
g2
Ntp417
Rp418
(dp419
g13
I44
sg16
I2
sbag0
(g44
g2
Ntp420
Rp421
(dp422
g13
I45
sg16
I2
sbag0
(g44
g2
Ntp423
Rp424
(dp425
g13
I4
sg16
I3
sbag0
(g44
g2
Ntp426
Rp427
(dp428
g13
I5
sg16
I3
sbag0
(g44
g2
Ntp429
Rp430
(dp431
g13
I6
sg16
I3
sbag0
(g44
g2
Ntp432
Rp433
(dp434
g13
I7
sg16
I3
sbag0
(g44
g2
Ntp435
Rp436
(dp437
g13
I8
sg16
I3
sbag0
(g44
g2
Ntp438
Rp439
(dp440
g13
I9
sg16
I3
sbag0
(g44
g2
Ntp441
Rp442
(dp443
g13
I10
sg16
I3
sbag0
(g44
g2
Ntp444
Rp445
(dp446
g13
I11
sg16
I3
sbag0
(g44
g2
Ntp447
Rp448
(dp449
g13
I12
sg16
I3
sbag0
(g44
g2
Ntp450
Rp451
(dp452
g13
I13
sg16
I3
sbag0
(g44
g2
Ntp453
Rp454
(dp455
g13
I14
sg16
I3
sbag0
(g44
g2
Ntp456
Rp457
(dp458
g13
I15
sg16
I3
sbag0
(g44
g2
Ntp459
Rp460
(dp461
g13
I16
sg16
I3
sbag0
(g44
g2
Ntp462
Rp463
(dp464
g13
I17
sg16
I3
sbag0
(g44
g2
Ntp465
Rp466
(dp467
g13
I18
sg16
I3
sbag0
(g44
g2
Ntp468
Rp469
(dp470
g13
I19
sg16
I3
sbag0
(g44
g2
Ntp471
Rp472
(dp473
g13
I20
sg16
I3
sbag0
(g44
g2
Ntp474
Rp475
(dp476
g13
I21
sg16
I3
sbag0
(g44
g2
Ntp477
Rp478
(dp479
g13
I22
sg16
I3
sbag0
(g44
g2
Ntp480
Rp481
(dp482
g13
I29
sg16
I3
sbag0
(g44
g2
Ntp483
Rp484
(dp485
g13
I30
sg16
I3
sbag0
(g44
g2
Ntp486
Rp487
(dp488
g13
I31
sg16
I3
sbag0
(g44
g2
Ntp489
Rp490
(dp491
g13
I32
sg16
I3
sbag0
(g44
g2
Ntp492
Rp493
(dp494
g13
I33
sg16
I3
sbag0
(g44
g2
Ntp495
Rp496
(dp497
g13
I34
sg16
I3
sbag0
(g44
g2
Ntp498
Rp499
(dp500
g13
I35
sg16
I3
sbag0
(g44
g2
Ntp501
Rp502
(dp503
g13
I36
sg16
I3
sbag0
(g44
g2
Ntp504
Rp505
(dp506
g13
I37
sg16
I3
sbag0
(g44
g2
Ntp507
Rp508
(dp509
g13
I39
sg16
I3
sbag0
(g44
g2
Ntp510
Rp511
(dp512
g13
I40
sg16
I3
sbag0
(g44
g2
Ntp513
Rp514
(dp515
g13
I41
sg16
I3
sbag0
(g44
g2
Ntp516
Rp517
(dp518
g13
I42
sg16
I3
sbag0
(g44
g2
Ntp519
Rp520
(dp521
g13
I43
sg16
I3
sbag0
(g44
g2
Ntp522
Rp523
(dp524
g13
I44
sg16
I3
sbag0
(g44
g2
Ntp525
Rp526
(dp527
g13
I45
sg16
I3
sbag0
(g44
g2
Ntp528
Rp529
(dp530
g13
I46
sg16
I0
sbag0
(g44
g2
Ntp531
Rp532
(dp533
g13
I47
sg16
I0
sbag0
(g44
g2
Ntp534
Rp535
(dp536
g13
I48
sg16
I0
sbag0
(g44
g2
Ntp537
Rp538
(dp539
g13
I49
sg16
I0
sbag0
(g44
g2
Ntp540
Rp541
(dp542
g13
I46
sg16
I1
sbag0
(g44
g2
Ntp543
Rp544
(dp545
g13
I47
sg16
I1
sbag0
(g44
g2
Ntp546
Rp547
(dp548
g13
I48
sg16
I1
sbag0
(g44
g2
Ntp549
Rp550
(dp551
g13
I49
sg16
I1
sbag0
(g44
g2
Ntp552
Rp553
(dp554
g13
I46
sg16
I2
sbag0
(g44
g2
Ntp555
Rp556
(dp557
g13
I47
sg16
I2
sbag0
(g44
g2
Ntp558
Rp559
(dp560
g13
I48
sg16
I2
sbag0
(g44
g2
Ntp561
Rp562
(dp563
g13
I49
sg16
I2
sbag0
(g44
g2
Ntp564
Rp565
(dp566
g13
I46
sg16
I3
sbag0
(g44
g2
Ntp567
Rp568
(dp569
g13
I47
sg16
I3
sbag0
(g44
g2
Ntp570
Rp571
(dp572
g13
I48
sg16
I3
sbag0
(g44
g2
Ntp573
Rp574
(dp575
g13
I49
sg16
I3
sbag0
(g44
g2
Ntp576
Rp577
(dp578
g13
I46
sg16
I4
sbag0
(g44
g2
Ntp579
Rp580
(dp581
g13
I47
sg16
I4
sbag0
(g44
g2
Ntp582
Rp583
(dp584
g13
I48
sg16
I4
sbag0
(g44
g2
Ntp585
Rp586
(dp587
g13
I49
sg16
I4
sbag0
(g44
g2
Ntp588
Rp589
(dp590
g13
I46
sg16
I5
sbag0
(g44
g2
Ntp591
Rp592
(dp593
g13
I47
sg16
I5
sbag0
(g44
g2
Ntp594
Rp595
(dp596
g13
I48
sg16
I5
sbag0
(g44
g2
Ntp597
Rp598
(dp599
g13
I49
sg16
I5
sbag0
(g44
g2
Ntp600
Rp601
(dp602
g13
I46
sg16
I6
sbag0
(g44
g2
Ntp603
Rp604
(dp605
g13
I47
sg16
I6
sbag0
(g44
g2
Ntp606
Rp607
(dp608
g13
I48
sg16
I6
sbag0
(g44
g2
Ntp609
Rp610
(dp611
g13
I49
sg16
I6
sbag0
(g44
g2
Ntp612
Rp613
(dp614
g13
I46
sg16
I7
sbag0
(g44
g2
Ntp615
Rp616
(dp617
g13
I47
sg16
I7
sbag0
(g44
g2
Ntp618
Rp619
(dp620
g13
I48
sg16
I7
sbag0
(g44
g2
Ntp621
Rp622
(dp623
g13
I49
sg16
I7
sbag0
(g44
g2
Ntp624
Rp625
(dp626
g13
I46
sg16
I8
sbag0
(g44
g2
Ntp627
Rp628
(dp629
g13
I47
sg16
I8
sbag0
(g44
g2
Ntp630
Rp631
(dp632
g13
I48
sg16
I8
sbag0
(g44
g2
Ntp633
Rp634
(dp635
g13
I49
sg16
I8
sbag0
(g44
g2
Ntp636
Rp637
(dp638
g13
I46
sg16
I9
sbag0
(g44
g2
Ntp639
Rp640
(dp641
g13
I47
sg16
I9
sbag0
(g44
g2
Ntp642
Rp643
(dp644
g13
I48
sg16
I9
sbag0
(g44
g2
Ntp645
Rp646
(dp647
g13
I49
sg16
I9
sbag0
(g44
g2
Ntp648
Rp649
(dp650
g13
I46
sg16
I10
sbag0
(g44
g2
Ntp651
Rp652
(dp653
g13
I47
sg16
I10
sbag0
(g44
g2
Ntp654
Rp655
(dp656
g13
I48
sg16
I10
sbag0
(g44
g2
Ntp657
Rp658
(dp659
g13
I49
sg16
I10
sbag0
(g44
g2
Ntp660
Rp661
(dp662
g13
I46
sg16
I11
sbag0
(g44
g2
Ntp663
Rp664
(dp665
g13
I47
sg16
I11
sbag0
(g44
g2
Ntp666
Rp667
(dp668
g13
I48
sg16
I11
sbag0
(g44
g2
Ntp669
Rp670
(dp671
g13
I49
sg16
I11
sbag0
(g44
g2
Ntp672
Rp673
(dp674
g13
I46
sg16
I12
sbag0
(g44
g2
Ntp675
Rp676
(dp677
g13
I47
sg16
I12
sbag0
(g44
g2
Ntp678
Rp679
(dp680
g13
I48
sg16
I12
sbag0
(g44
g2
Ntp681
Rp682
(dp683
g13
I49
sg16
I12
sbag0
(g44
g2
Ntp684
Rp685
(dp686
g13
I46
sg16
I13
sbag0
(g44
g2
Ntp687
Rp688
(dp689
g13
I47
sg16
I13
sbag0
(g44
g2
Ntp690
Rp691
(dp692
g13
I48
sg16
I13
sbag0
(g44
g2
Ntp693
Rp694
(dp695
g13
I49
sg16
I13
sbag0
(g44
g2
Ntp696
Rp697
(dp698
g13
I46
sg16
I14
sbag0
(g44
g2
Ntp699
Rp700
(dp701
g13
I47
sg16
I14
sbag0
(g44
g2
Ntp702
Rp703
(dp704
g13
I48
sg16
I14
sbag0
(g44
g2
Ntp705
Rp706
(dp707
g13
I49
sg16
I14
sbag0
(g44
g2
Ntp708
Rp709
(dp710
g13
I46
sg16
I15
sbag0
(g44
g2
Ntp711
Rp712
(dp713
g13
I47
sg16
I15
sbag0
(g44
g2
Ntp714
Rp715
(dp716
g13
I48
sg16
I15
sbag0
(g44
g2
Ntp717
Rp718
(dp719
g13
I49
sg16
I15
sbag0
(g44
g2
Ntp720
Rp721
(dp722
g13
I46
sg16
I16
sbag0
(g44
g2
Ntp723
Rp724
(dp725
g13
I47
sg16
I16
sbag0
(g44
g2
Ntp726
Rp727
(dp728
g13
I48
sg16
I16
sbag0
(g44
g2
Ntp729
Rp730
(dp731
g13
I49
sg16
I16
sbag0
(g44
g2
Ntp732
Rp733
(dp734
g13
I46
sg16
I17
sbag0
(g44
g2
Ntp735
Rp736
(dp737
g13
I47
sg16
I17
sbag0
(g44
g2
Ntp738
Rp739
(dp740
g13
I48
sg16
I17
sbag0
(g44
g2
Ntp741
Rp742
(dp743
g13
I49
sg16
I17
sbag0
(g44
g2
Ntp744
Rp745
(dp746
g13
I46
sg16
I18
sbag0
(g44
g2
Ntp747
Rp748
(dp749
g13
I47
sg16
I18
sbag0
(g44
g2
Ntp750
Rp751
(dp752
g13
I48
sg16
I18
sbag0
(g44
g2
Ntp753
Rp754
(dp755
g13
I49
sg16
I18
sbag0
(g44
g2
Ntp756
Rp757
(dp758
g13
I46
sg16
I19
sbag0
(g44
g2
Ntp759
Rp760
(dp761
g13
I47
sg16
I19
sbag0
(g44
g2
Ntp762
Rp763
(dp764
g13
I48
sg16
I19
sbag0
(g44
g2
Ntp765
Rp766
(dp767
g13
I49
sg16
I19
sbag0
(g44
g2
Ntp768
Rp769
(dp770
g13
I46
sg16
I20
sbag0
(g44
g2
Ntp771
Rp772
(dp773
g13
I47
sg16
I20
sbag0
(g44
g2
Ntp774
Rp775
(dp776
g13
I48
sg16
I20
sbag0
(g44
g2
Ntp777
Rp778
(dp779
g13
I49
sg16
I20
sbag0
(g44
g2
Ntp780
Rp781
(dp782
g13
I46
sg16
I21
sbag0
(g44
g2
Ntp783
Rp784
(dp785
g13
I47
sg16
I21
sbag0
(g44
g2
Ntp786
Rp787
(dp788
g13
I48
sg16
I21
sbag0
(g44
g2
Ntp789
Rp790
(dp791
g13
I49
sg16
I21
sbag0
(g44
g2
Ntp792
Rp793
(dp794
g13
I46
sg16
I22
sbag0
(g44
g2
Ntp795
Rp796
(dp797
g13
I47
sg16
I22
sbag0
(g44
g2
Ntp798
Rp799
(dp800
g13
I48
sg16
I22
sbag0
(g44
g2
Ntp801
Rp802
(dp803
g13
I49
sg16
I22
sbag0
(g44
g2
Ntp804
Rp805
(dp806
g13
I46
sg16
I23
sbag0
(g44
g2
Ntp807
Rp808
(dp809
g13
I47
sg16
I23
sbag0
(g44
g2
Ntp810
Rp811
(dp812
g13
I48
sg16
I23
sbag0
(g44
g2
Ntp813
Rp814
(dp815
g13
I49
sg16
I23
sbag0
(g44
g2
Ntp816
Rp817
(dp818
g13
I46
sg16
I24
sbag0
(g44
g2
Ntp819
Rp820
(dp821
g13
I47
sg16
I24
sbag0
(g44
g2
Ntp822
Rp823
(dp824
g13
I48
sg16
I24
sbag0
(g44
g2
Ntp825
Rp826
(dp827
g13
I49
sg16
I24
sbag0
(g44
g2
Ntp828
Rp829
(dp830
g13
I46
sg16
I25
sbag0
(g44
g2
Ntp831
Rp832
(dp833
g13
I47
sg16
I25
sbag0
(g44
g2
Ntp834
Rp835
(dp836
g13
I48
sg16
I25
sbag0
(g44
g2
Ntp837
Rp838
(dp839
g13
I49
sg16
I25
sbag0
(g44
g2
Ntp840
Rp841
(dp842
g13
I46
sg16
I26
sbag0
(g44
g2
Ntp843
Rp844
(dp845
g13
I47
sg16
I26
sbag0
(g44
g2
Ntp846
Rp847
(dp848
g13
I48
sg16
I26
sbag0
(g44
g2
Ntp849
Rp850
(dp851
g13
I49
sg16
I26
sbag0
(g44
g2
Ntp852
Rp853
(dp854
g13
I46
sg16
I27
sbag0
(g44
g2
Ntp855
Rp856
(dp857
g13
I47
sg16
I27
sbag0
(g44
g2
Ntp858
Rp859
(dp860
g13
I48
sg16
I27
sbag0
(g44
g2
Ntp861
Rp862
(dp863
g13
I49
sg16
I27
sbag0
(g44
g2
Ntp864
Rp865
(dp866
g13
I46
sg16
I28
sbag0
(g44
g2
Ntp867
Rp868
(dp869
g13
I47
sg16
I28
sbag0
(g44
g2
Ntp870
Rp871
(dp872
g13
I48
sg16
I28
sbag0
(g44
g2
Ntp873
Rp874
(dp875
g13
I49
sg16
I28
sbag0
(g44
g2
Ntp876
Rp877
(dp878
g13
I46
sg16
I29
sbag0
(g44
g2
Ntp879
Rp880
(dp881
g13
I47
sg16
I29
sbag0
(g44
g2
Ntp882
Rp883
(dp884
g13
I48
sg16
I29
sbag0
(g44
g2
Ntp885
Rp886
(dp887
g13
I49
sg16
I29
sbag0
(g44
g2
Ntp888
Rp889
(dp890
g13
I46
sg16
I30
sbag0
(g44
g2
Ntp891
Rp892
(dp893
g13
I47
sg16
I30
sbag0
(g44
g2
Ntp894
Rp895
(dp896
g13
I48
sg16
I30
sbag0
(g44
g2
Ntp897
Rp898
(dp899
g13
I49
sg16
I30
sbag0
(g44
g2
Ntp900
Rp901
(dp902
g13
I46
sg16
I31
sbag0
(g44
g2
Ntp903
Rp904
(dp905
g13
I47
sg16
I31
sbag0
(g44
g2
Ntp906
Rp907
(dp908
g13
I48
sg16
I31
sbag0
(g44
g2
Ntp909
Rp910
(dp911
g13
I49
sg16
I31
sbag0
(g44
g2
Ntp912
Rp913
(dp914
g13
I46
sg16
I32
sbag0
(g44
g2
Ntp915
Rp916
(dp917
g13
I47
sg16
I32
sbag0
(g44
g2
Ntp918
Rp919
(dp920
g13
I48
sg16
I32
sbag0
(g44
g2
Ntp921
Rp922
(dp923
g13
I49
sg16
I32
sbag0
(g44
g2
Ntp924
Rp925
(dp926
g13
I46
sg16
I33
sbag0
(g44
g2
Ntp927
Rp928
(dp929
g13
I47
sg16
I33
sbag0
(g44
g2
Ntp930
Rp931
(dp932
g13
I48
sg16
I33
sbag0
(g44
g2
Ntp933
Rp934
(dp935
g13
I49
sg16
I33
sbag0
(g44
g2
Ntp936
Rp937
(dp938
g13
I46
sg16
I34
sbag0
(g44
g2
Ntp939
Rp940
(dp941
g13
I47
sg16
I34
sbag0
(g44
g2
Ntp942
Rp943
(dp944
g13
I48
sg16
I34
sbag0
(g44
g2
Ntp945
Rp946
(dp947
g13
I49
sg16
I34
sbag0
(g44
g2
Ntp948
Rp949
(dp950
g13
I46
sg16
I35
sbag0
(g44
g2
Ntp951
Rp952
(dp953
g13
I47
sg16
I35
sbag0
(g44
g2
Ntp954
Rp955
(dp956
g13
I48
sg16
I35
sbag0
(g44
g2
Ntp957
Rp958
(dp959
g13
I49
sg16
I35
sbag0
(g44
g2
Ntp960
Rp961
(dp962
g13
I46
sg16
I36
sbag0
(g44
g2
Ntp963
Rp964
(dp965
g13
I47
sg16
I36
sbag0
(g44
g2
Ntp966
Rp967
(dp968
g13
I48
sg16
I36
sbag0
(g44
g2
Ntp969
Rp970
(dp971
g13
I49
sg16
I36
sbag0
(g44
g2
Ntp972
Rp973
(dp974
g13
I46
sg16
I37
sbag0
(g44
g2
Ntp975
Rp976
(dp977
g13
I47
sg16
I37
sbag0
(g44
g2
Ntp978
Rp979
(dp980
g13
I48
sg16
I37
sbag0
(g44
g2
Ntp981
Rp982
(dp983
g13
I49
sg16
I37
sbag0
(g44
g2
Ntp984
Rp985
(dp986
g13
I46
sg16
I38
sbag0
(g44
g2
Ntp987
Rp988
(dp989
g13
I47
sg16
I38
sbag0
(g44
g2
Ntp990
Rp991
(dp992
g13
I48
sg16
I38
sbag0
(g44
g2
Ntp993
Rp994
(dp995
g13
I49
sg16
I38
sbag0
(g44
g2
Ntp996
Rp997
(dp998
g13
I46
sg16
I39
sbag0
(g44
g2
Ntp999
Rp1000
(dp1001
g13
I47
sg16
I39
sbag0
(g44
g2
Ntp1002
Rp1003
(dp1004
g13
I48
sg16
I39
sbag0
(g44
g2
Ntp1005
Rp1006
(dp1007
g13
I49
sg16
I39
sbag0
(g44
g2
Ntp1008
Rp1009
(dp1010
g13
I46
sg16
I40
sbag0
(g44
g2
Ntp1011
Rp1012
(dp1013
g13
I47
sg16
I40
sbag0
(g44
g2
Ntp1014
Rp1015
(dp1016
g13
I48
sg16
I40
sbag0
(g44
g2
Ntp1017
Rp1018
(dp1019
g13
I49
sg16
I40
sbag0
(g44
g2
Ntp1020
Rp1021
(dp1022
g13
I46
sg16
I41
sbag0
(g44
g2
Ntp1023
Rp1024
(dp1025
g13
I47
sg16
I41
sbag0
(g44
g2
Ntp1026
Rp1027
(dp1028
g13
I48
sg16
I41
sbag0
(g44
g2
Ntp1029
Rp1030
(dp1031
g13
I49
sg16
I41
sbag0
(g44
g2
Ntp1032
Rp1033
(dp1034
g13
I46
sg16
I42
sbag0
(g44
g2
Ntp1035
Rp1036
(dp1037
g13
I47
sg16
I42
sbag0
(g44
g2
Ntp1038
Rp1039
(dp1040
g13
I48
sg16
I42
sbag0
(g44
g2
Ntp1041
Rp1042
(dp1043
g13
I49
sg16
I42
sbag0
(g44
g2
Ntp1044
Rp1045
(dp1046
g13
I46
sg16
I43
sbag0
(g44
g2
Ntp1047
Rp1048
(dp1049
g13
I47
sg16
I43
sbag0
(g44
g2
Ntp1050
Rp1051
(dp1052
g13
I48
sg16
I43
sbag0
(g44
g2
Ntp1053
Rp1054
(dp1055
g13
I49
sg16
I43
sbag0
(g44
g2
Ntp1056
Rp1057
(dp1058
g13
I46
sg16
I44
sbag0
(g44
g2
Ntp1059
Rp1060
(dp1061
g13
I47
sg16
I44
sbag0
(g44
g2
Ntp1062
Rp1063
(dp1064
g13
I48
sg16
I44
sbag0
(g44
g2
Ntp1065
Rp1066
(dp1067
g13
I49
sg16
I44
sbag0
(g44
g2
Ntp1068
Rp1069
(dp1070
g13
I46
sg16
I45
sbag0
(g44
g2
Ntp1071
Rp1072
(dp1073
g13
I47
sg16
I45
sbag0
(g44
g2
Ntp1074
Rp1075
(dp1076
g13
I48
sg16
I45
sbag0
(g44
g2
Ntp1077
Rp1078
(dp1079
g13
I49
sg16
I45
sbag0
(g44
g2
Ntp1080
Rp1081
(dp1082
g13
I46
sg16
I46
sbag0
(g44
g2
Ntp1083
Rp1084
(dp1085
g13
I47
sg16
I46
sbag0
(g44
g2
Ntp1086
Rp1087
(dp1088
g13
I48
sg16
I46
sbag0
(g44
g2
Ntp1089
Rp1090
(dp1091
g13
I49
sg16
I46
sbag0
(g44
g2
Ntp1092
Rp1093
(dp1094
g13
I46
sg16
I47
sbag0
(g44
g2
Ntp1095
Rp1096
(dp1097
g13
I47
sg16
I47
sbag0
(g44
g2
Ntp1098
Rp1099
(dp1100
g13
I48
sg16
I47
sbag0
(g44
g2
Ntp1101
Rp1102
(dp1103
g13
I49
sg16
I47
sbag0
(g44
g2
Ntp1104
Rp1105
(dp1106
g13
I46
sg16
I48
sbag0
(g44
g2
Ntp1107
Rp1108
(dp1109
g13
I47
sg16
I48
sbag0
(g44
g2
Ntp1110
Rp1111
(dp1112
g13
I48
sg16
I48
sbag0
(g44
g2
Ntp1113
Rp1114
(dp1115
g13
I49
sg16
I48
sbag0
(g44
g2
Ntp1116
Rp1117
(dp1118
g13
I46
sg16
I49
sbag0
(g44
g2
Ntp1119
Rp1120
(dp1121
g13
I47
sg16
I49
sbag0
(g44
g2
Ntp1122
Rp1123
(dp1124
g13
I48
sg16
I49
sbag0
(g44
g2
Ntp1125
Rp1126
(dp1127
g13
I49
sg16
I49
sbag0
(g44
g2
Ntp1128
Rp1129
(dp1130
g13
I46
sg16
I50
sbag0
(g44
g2
Ntp1131
Rp1132
(dp1133
g13
I47
sg16
I50
sbag0
(g44
g2
Ntp1134
Rp1135
(dp1136
g13
I48
sg16
I50
sbag0
(g44
g2
Ntp1137
Rp1138
(dp1139
g13
I49
sg16
I50
sbag0
(g44
g2
Ntp1140
Rp1141
(dp1142
g13
I46
sg16
I59
sbag0
(g44
g2
Ntp1143
Rp1144
(dp1145
g13
I47
sg16
I59
sbag0
(g44
g2
Ntp1146
Rp1147
(dp1148
g13
I48
sg16
I59
sbag0
(g44
g2
Ntp1149
Rp1150
(dp1151
g13
I49
sg16
I59
sbag0
(g44
g2
Ntp1152
Rp1153
(dp1154
g13
I46
sg16
I60
sbag0
(g44
g2
Ntp1155
Rp1156
(dp1157
g13
I47
sg16
I60
sbag0
(g44
g2
Ntp1158
Rp1159
(dp1160
g13
I48
sg16
I60
sbag0
(g44
g2
Ntp1161
Rp1162
(dp1163
g13
I49
sg16
I60
sbag0
(g44
g2
Ntp1164
Rp1165
(dp1166
g13
I46
sg16
I61
sbag0
(g44
g2
Ntp1167
Rp1168
(dp1169
g13
I47
sg16
I61
sbag0
(g44
g2
Ntp1170
Rp1171
(dp1172
g13
I48
sg16
I61
sbag0
(g44
g2
Ntp1173
Rp1174
(dp1175
g13
I49
sg16
I61
sbag0
(g44
g2
Ntp1176
Rp1177
(dp1178
g13
I46
sg16
I62
sbag0
(g44
g2
Ntp1179
Rp1180
(dp1181
g13
I47
sg16
I62
sbag0
(g44
g2
Ntp1182
Rp1183
(dp1184
g13
I48
sg16
I62
sbag0
(g44
g2
Ntp1185
Rp1186
(dp1187
g13
I49
sg16
I62
sbag0
(g44
g2
Ntp1188
Rp1189
(dp1190
g13
I46
sg16
I63
sbag0
(g44
g2
Ntp1191
Rp1192
(dp1193
g13
I47
sg16
I63
sbag0
(g44
g2
Ntp1194
Rp1195
(dp1196
g13
I48
sg16
I63
sbag0
(g44
g2
Ntp1197
Rp1198
(dp1199
g13
I49
sg16
I63
sbag0
(g44
g2
Ntp1200
Rp1201
(dp1202
g13
I46
sg16
I64
sbag0
(g44
g2
Ntp1203
Rp1204
(dp1205
g13
I47
sg16
I64
sbag0
(g44
g2
Ntp1206
Rp1207
(dp1208
g13
I48
sg16
I64
sbag0
(g44
g2
Ntp1209
Rp1210
(dp1211
g13
I49
sg16
I64
sbag0
(g44
g2
Ntp1212
Rp1213
(dp1214
g13
I46
sg16
I65
sbag0
(g44
g2
Ntp1215
Rp1216
(dp1217
g13
I47
sg16
I65
sbag0
(g44
g2
Ntp1218
Rp1219
(dp1220
g13
I48
sg16
I65
sbag0
(g44
g2
Ntp1221
Rp1222
(dp1223
g13
I49
sg16
I65
sbag0
(g44
g2
Ntp1224
Rp1225
(dp1226
g13
I46
sg16
I66
sbag0
(g44
g2
Ntp1227
Rp1228
(dp1229
g13
I47
sg16
I66
sbag0
(g44
g2
Ntp1230
Rp1231
(dp1232
g13
I48
sg16
I66
sbag0
(g44
g2
Ntp1233
Rp1234
(dp1235
g13
I49
sg16
I66
sbag0
(g44
g2
Ntp1236
Rp1237
(dp1238
g13
I46
sg16
I67
sbag0
(g44
g2
Ntp1239
Rp1240
(dp1241
g13
I47
sg16
I67
sbag0
(g44
g2
Ntp1242
Rp1243
(dp1244
g13
I48
sg16
I67
sbag0
(g44
g2
Ntp1245
Rp1246
(dp1247
g13
I49
sg16
I67
sbag0
(g44
g2
Ntp1248
Rp1249
(dp1250
g13
I46
sg16
I68
sbag0
(g44
g2
Ntp1251
Rp1252
(dp1253
g13
I47
sg16
I68
sbag0
(g44
g2
Ntp1254
Rp1255
(dp1256
g13
I48
sg16
I68
sbag0
(g44
g2
Ntp1257
Rp1258
(dp1259
g13
I49
sg16
I68
sbag0
(g44
g2
Ntp1260
Rp1261
(dp1262
g13
I46
sg16
I69
sbag0
(g44
g2
Ntp1263
Rp1264
(dp1265
g13
I47
sg16
I69
sbag0
(g44
g2
Ntp1266
Rp1267
(dp1268
g13
I48
sg16
I69
sbag0
(g44
g2
Ntp1269
Rp1270
(dp1271
g13
I49
sg16
I69
sbag0
(g44
g2
Ntp1272
Rp1273
(dp1274
g13
I46
sg16
I70
sbag0
(g44
g2
Ntp1275
Rp1276
(dp1277
g13
I47
sg16
I70
sbag0
(g44
g2
Ntp1278
Rp1279
(dp1280
g13
I48
sg16
I70
sbag0
(g44
g2
Ntp1281
Rp1282
(dp1283
g13
I49
sg16
I70
sbag0
(g44
g2
Ntp1284
Rp1285
(dp1286
g13
I46
sg16
I71
sbag0
(g44
g2
Ntp1287
Rp1288
(dp1289
g13
I47
sg16
I71
sbag0
(g44
g2
Ntp1290
Rp1291
(dp1292
g13
I48
sg16
I71
sbag0
(g44
g2
Ntp1293
Rp1294
(dp1295
g13
I49
sg16
I71
sbag0
(g44
g2
Ntp1296
Rp1297
(dp1298
g13
I46
sg16
I72
sbag0
(g44
g2
Ntp1299
Rp1300
(dp1301
g13
I47
sg16
I72
sbag0
(g44
g2
Ntp1302
Rp1303
(dp1304
g13
I48
sg16
I72
sbag0
(g44
g2
Ntp1305
Rp1306
(dp1307
g13
I49
sg16
I72
sbag0
(g44
g2
Ntp1308
Rp1309
(dp1310
g13
I46
sg16
I73
sbag0
(g44
g2
Ntp1311
Rp1312
(dp1313
g13
I47
sg16
I73
sbag0
(g44
g2
Ntp1314
Rp1315
(dp1316
g13
I48
sg16
I73
sbag0
(g44
g2
Ntp1317
Rp1318
(dp1319
g13
I49
sg16
I73
sbag0
(g44
g2
Ntp1320
Rp1321
(dp1322
g13
I46
sg16
I74
sbag0
(g44
g2
Ntp1323
Rp1324
(dp1325
g13
I47
sg16
I74
sbag0
(g44
g2
Ntp1326
Rp1327
(dp1328
g13
I48
sg16
I74
sbag0
(g44
g2
Ntp1329
Rp1330
(dp1331
g13
I49
sg16
I74
sbag0
(g44
g2
Ntp1332
Rp1333
(dp1334
g13
I29
sg16
I75
sbag0
(g44
g2
Ntp1335
Rp1336
(dp1337
g13
I30
sg16
I75
sbag0
(g44
g2
Ntp1338
Rp1339
(dp1340
g13
I31
sg16
I75
sbag0
(g44
g2
Ntp1341
Rp1342
(dp1343
g13
I32
sg16
I75
sbag0
(g44
g2
Ntp1344
Rp1345
(dp1346
g13
I33
sg16
I75
sbag0
(g44
g2
Ntp1347
Rp1348
(dp1349
g13
I34
sg16
I75
sbag0
(g44
g2
Ntp1350
Rp1351
(dp1352
g13
I35
sg16
I75
sbag0
(g44
g2
Ntp1353
Rp1354
(dp1355
g13
I36
sg16
I75
sbag0
(g44
g2
Ntp1356
Rp1357
(dp1358
g13
I37
sg16
I75
sbag0
(g44
g2
Ntp1359
Rp1360
(dp1361
g13
I38
sg16
I75
sbag0
(g44
g2
Ntp1362
Rp1363
(dp1364
g13
I39
sg16
I75
sbag0
(g44
g2
Ntp1365
Rp1366
(dp1367
g13
I40
sg16
I75
sbag0
(g44
g2
Ntp1368
Rp1369
(dp1370
g13
I41
sg16
I75
sbag0
(g44
g2
Ntp1371
Rp1372
(dp1373
g13
I42
sg16
I75
sbag0
(g44
g2
Ntp1374
Rp1375
(dp1376
g13
I43
sg16
I75
sbag0
(g44
g2
Ntp1377
Rp1378
(dp1379
g13
I44
sg16
I75
sbag0
(g44
g2
Ntp1380
Rp1381
(dp1382
g13
I45
sg16
I75
sbag0
(g44
g2
Ntp1383
Rp1384
(dp1385
g13
I46
sg16
I75
sbag0
(g44
g2
Ntp1386
Rp1387
(dp1388
g13
I47
sg16
I75
sbag0
(g44
g2
Ntp1389
Rp1390
(dp1391
g13
I48
sg16
I75
sbag0
(g44
g2
Ntp1392
Rp1393
(dp1394
g13
I49
sg16
I75
sbag0
(g44
g2
Ntp1395
Rp1396
(dp1397
g13
I29
sg16
I76
sbag0
(g44
g2
Ntp1398
Rp1399
(dp1400
g13
I30
sg16
I76
sbag0
(g44
g2
Ntp1401
Rp1402
(dp1403
g13
I31
sg16
I76
sbag0
(g44
g2
Ntp1404
Rp1405
(dp1406
g13
I32
sg16
I76
sbag0
(g44
g2
Ntp1407
Rp1408
(dp1409
g13
I33
sg16
I76
sbag0
(g44
g2
Ntp1410
Rp1411
(dp1412
g13
I34
sg16
I76
sbag0
(g44
g2
Ntp1413
Rp1414
(dp1415
g13
I35
sg16
I76
sbag0
(g44
g2
Ntp1416
Rp1417
(dp1418
g13
I36
sg16
I76
sbag0
(g44
g2
Ntp1419
Rp1420
(dp1421
g13
I37
sg16
I76
sbag0
(g44
g2
Ntp1422
Rp1423
(dp1424
g13
I38
sg16
I76
sbag0
(g44
g2
Ntp1425
Rp1426
(dp1427
g13
I39
sg16
I76
sbag0
(g44
g2
Ntp1428
Rp1429
(dp1430
g13
I40
sg16
I76
sbag0
(g44
g2
Ntp1431
Rp1432
(dp1433
g13
I41
sg16
I76
sbag0
(g44
g2
Ntp1434
Rp1435
(dp1436
g13
I42
sg16
I76
sbag0
(g44
g2
Ntp1437
Rp1438
(dp1439
g13
I43
sg16
I76
sbag0
(g44
g2
Ntp1440
Rp1441
(dp1442
g13
I44
sg16
I76
sbag0
(g44
g2
Ntp1443
Rp1444
(dp1445
g13
I45
sg16
I76
sbag0
(g44
g2
Ntp1446
Rp1447
(dp1448
g13
I46
sg16
I76
sbag0
(g44
g2
Ntp1449
Rp1450
(dp1451
g13
I47
sg16
I76
sbag0
(g44
g2
Ntp1452
Rp1453
(dp1454
g13
I48
sg16
I76
sbag0
(g44
g2
Ntp1455
Rp1456
(dp1457
g13
I49
sg16
I76
sbag0
(g44
g2
Ntp1458
Rp1459
(dp1460
g13
I29
sg16
I77
sbag0
(g44
g2
Ntp1461
Rp1462
(dp1463
g13
I30
sg16
I77
sbag0
(g44
g2
Ntp1464
Rp1465
(dp1466
g13
I31
sg16
I77
sbag0
(g44
g2
Ntp1467
Rp1468
(dp1469
g13
I32
sg16
I77
sbag0
(g44
g2
Ntp1470
Rp1471
(dp1472
g13
I33
sg16
I77
sbag0
(g44
g2
Ntp1473
Rp1474
(dp1475
g13
I34
sg16
I77
sbag0
(g44
g2
Ntp1476
Rp1477
(dp1478
g13
I35
sg16
I77
sbag0
(g44
g2
Ntp1479
Rp1480
(dp1481
g13
I36
sg16
I77
sbag0
(g44
g2
Ntp1482
Rp1483
(dp1484
g13
I37
sg16
I77
sbag0
(g44
g2
Ntp1485
Rp1486
(dp1487
g13
I38
sg16
I77
sbag0
(g44
g2
Ntp1488
Rp1489
(dp1490
g13
I39
sg16
I77
sbag0
(g44
g2
Ntp1491
Rp1492
(dp1493
g13
I40
sg16
I77
sbag0
(g44
g2
Ntp1494
Rp1495
(dp1496
g13
I41
sg16
I77
sbag0
(g44
g2
Ntp1497
Rp1498
(dp1499
g13
I42
sg16
I77
sbag0
(g44
g2
Ntp1500
Rp1501
(dp1502
g13
I43
sg16
I77
sbag0
(g44
g2
Ntp1503
Rp1504
(dp1505
g13
I44
sg16
I77
sbag0
(g44
g2
Ntp1506
Rp1507
(dp1508
g13
I45
sg16
I77
sbag0
(g44
g2
Ntp1509
Rp1510
(dp1511
g13
I46
sg16
I77
sbag0
(g44
g2
Ntp1512
Rp1513
(dp1514
g13
I47
sg16
I77
sbag0
(g44
g2
Ntp1515
Rp1516
(dp1517
g13
I48
sg16
I77
sbag0
(g44
g2
Ntp1518
Rp1519
(dp1520
g13
I49
sg16
I77
sbag0
(g44
g2
Ntp1521
Rp1522
(dp1523
g13
I28
sg16
I78
sbag0
(g44
g2
Ntp1524
Rp1525
(dp1526
g13
I29
sg16
I78
sbag0
(g44
g2
Ntp1527
Rp1528
(dp1529
g13
I30
sg16
I78
sbag0
(g44
g2
Ntp1530
Rp1531
(dp1532
g13
I31
sg16
I78
sbag0
(g44
g2
Ntp1533
Rp1534
(dp1535
g13
I32
sg16
I78
sbag0
(g44
g2
Ntp1536
Rp1537
(dp1538
g13
I33
sg16
I78
sbag0
(g44
g2
Ntp1539
Rp1540
(dp1541
g13
I34
sg16
I78
sbag0
(g44
g2
Ntp1542
Rp1543
(dp1544
g13
I35
sg16
I78
sbag0
(g44
g2
Ntp1545
Rp1546
(dp1547
g13
I36
sg16
I78
sbag0
(g44
g2
Ntp1548
Rp1549
(dp1550
g13
I37
sg16
I78
sbag0
(g44
g2
Ntp1551
Rp1552
(dp1553
g13
I38
sg16
I78
sbag0
(g44
g2
Ntp1554
Rp1555
(dp1556
g13
I39
sg16
I78
sbag0
(g44
g2
Ntp1557
Rp1558
(dp1559
g13
I40
sg16
I78
sbag0
(g44
g2
Ntp1560
Rp1561
(dp1562
g13
I41
sg16
I78
sbag0
(g44
g2
Ntp1563
Rp1564
(dp1565
g13
I42
sg16
I78
sbag0
(g44
g2
Ntp1566
Rp1567
(dp1568
g13
I43
sg16
I78
sbag0
(g44
g2
Ntp1569
Rp1570
(dp1571
g13
I44
sg16
I78
sbag0
(g44
g2
Ntp1572
Rp1573
(dp1574
g13
I45
sg16
I78
sbag0
(g44
g2
Ntp1575
Rp1576
(dp1577
g13
I46
sg16
I78
sbag0
(g44
g2
Ntp1578
Rp1579
(dp1580
g13
I47
sg16
I78
sbag0
(g44
g2
Ntp1581
Rp1582
(dp1583
g13
I48
sg16
I78
sbag0
(g44
g2
Ntp1584
Rp1585
(dp1586
g13
I49
sg16
I78
sbag0
(g44
g2
Ntp1587
Rp1588
(dp1589
g13
I28
sg16
I79
sbag0
(g44
g2
Ntp1590
Rp1591
(dp1592
g13
I29
sg16
I79
sbag0
(g44
g2
Ntp1593
Rp1594
(dp1595
g13
I30
sg16
I79
sbag0
(g44
g2
Ntp1596
Rp1597
(dp1598
g13
I31
sg16
I79
sbag0
(g44
g2
Ntp1599
Rp1600
(dp1601
g13
I32
sg16
I79
sbag0
(g44
g2
Ntp1602
Rp1603
(dp1604
g13
I33
sg16
I79
sbag0
(g44
g2
Ntp1605
Rp1606
(dp1607
g13
I34
sg16
I79
sbag0
(g44
g2
Ntp1608
Rp1609
(dp1610
g13
I35
sg16
I79
sbag0
(g44
g2
Ntp1611
Rp1612
(dp1613
g13
I36
sg16
I79
sbag0
(g44
g2
Ntp1614
Rp1615
(dp1616
g13
I37
sg16
I79
sbag0
(g44
g2
Ntp1617
Rp1618
(dp1619
g13
I38
sg16
I79
sbag0
(g44
g2
Ntp1620
Rp1621
(dp1622
g13
I39
sg16
I79
sbag0
(g44
g2
Ntp1623
Rp1624
(dp1625
g13
I40
sg16
I79
sbag0
(g44
g2
Ntp1626
Rp1627
(dp1628
g13
I41
sg16
I79
sbag0
(g44
g2
Ntp1629
Rp1630
(dp1631
g13
I42
sg16
I79
sbag0
(g44
g2
Ntp1632
Rp1633
(dp1634
g13
I43
sg16
I79
sbag0
(g44
g2
Ntp1635
Rp1636
(dp1637
g13
I44
sg16
I79
sbag0
(g44
g2
Ntp1638
Rp1639
(dp1640
g13
I45
sg16
I79
sbag0
(g44
g2
Ntp1641
Rp1642
(dp1643
g13
I46
sg16
I79
sbag0
(g44
g2
Ntp1644
Rp1645
(dp1646
g13
I47
sg16
I79
sbag0
(g44
g2
Ntp1647
Rp1648
(dp1649
g13
I48
sg16
I79
sbag0
(g44
g2
Ntp1650
Rp1651
(dp1652
g13
I49
sg16
I79
sbag0
(g44
g2
Ntp1653
Rp1654
(dp1655
g13
I27
sg16
I71
sbag0
(g44
g2
Ntp1656
Rp1657
(dp1658
g13
I28
sg16
I71
sbag0
(g44
g2
Ntp1659
Rp1660
(dp1661
g13
I27
sg16
I72
sbag0
(g44
g2
Ntp1662
Rp1663
(dp1664
g13
I28
sg16
I72
sbag0
(g44
g2
Ntp1665
Rp1666
(dp1667
g13
I27
sg16
I73
sbag0
(g44
g2
Ntp1668
Rp1669
(dp1670
g13
I28
sg16
I73
sbag0
(g44
g2
Ntp1671
Rp1672
(dp1673
g13
I27
sg16
I74
sbag0
(g44
g2
Ntp1674
Rp1675
(dp1676
g13
I28
sg16
I74
sbag0
(g44
g2
Ntp1677
Rp1678
(dp1679
g13
I27
sg16
I75
sbag0
(g44
g2
Ntp1680
Rp1681
(dp1682
g13
I28
sg16
I75
sbag0
(g44
g2
Ntp1683
Rp1684
(dp1685
g13
I27
sg16
I76
sbag0
(g44
g2
Ntp1686
Rp1687
(dp1688
g13
I28
sg16
I76
sbag0
(g44
g2
Ntp1689
Rp1690
(dp1691
g13
I27
sg16
I77
sbag0
(g44
g2
Ntp1692
Rp1693
(dp1694
g13
I28
sg16
I77
sbag0
(g44
g2
Ntp1695
Rp1696
(dp1697
g13
I22
sg16
I71
sbag0
(g44
g2
Ntp1698
Rp1699
(dp1700
g13
I23
sg16
I71
sbag0
(g44
g2
Ntp1701
Rp1702
(dp1703
g13
I22
sg16
I72
sbag0
(g44
g2
Ntp1704
Rp1705
(dp1706
g13
I23
sg16
I72
sbag0
(g44
g2
Ntp1707
Rp1708
(dp1709
g13
I22
sg16
I73
sbag0
(g44
g2
Ntp1710
Rp1711
(dp1712
g13
I23
sg16
I73
sbag0
(g44
g2
Ntp1713
Rp1714
(dp1715
g13
I22
sg16
I74
sbag0
(g44
g2
Ntp1716
Rp1717
(dp1718
g13
I23
sg16
I74
sbag0
(g44
g2
Ntp1719
Rp1720
(dp1721
g13
I23
sg16
I75
sbag0
(g44
g2
Ntp1722
Rp1723
(dp1724
g13
I23
sg16
I76
sbag0
(g44
g2
Ntp1725
Rp1726
(dp1727
g13
I23
sg16
I77
sbag0
(g44
g2
Ntp1728
Rp1729
(dp1730
g13
I4
sg16
I75
sbag0
(g44
g2
Ntp1731
Rp1732
(dp1733
g13
I5
sg16
I75
sbag0
(g44
g2
Ntp1734
Rp1735
(dp1736
g13
I6
sg16
I75
sbag0
(g44
g2
Ntp1737
Rp1738
(dp1739
g13
I7
sg16
I75
sbag0
(g44
g2
Ntp1740
Rp1741
(dp1742
g13
I8
sg16
I75
sbag0
(g44
g2
Ntp1743
Rp1744
(dp1745
g13
I9
sg16
I75
sbag0
(g44
g2
Ntp1746
Rp1747
(dp1748
g13
I10
sg16
I75
sbag0
(g44
g2
Ntp1749
Rp1750
(dp1751
g13
I11
sg16
I75
sbag0
(g44
g2
Ntp1752
Rp1753
(dp1754
g13
I12
sg16
I75
sbag0
(g44
g2
Ntp1755
Rp1756
(dp1757
g13
I13
sg16
I75
sbag0
(g44
g2
Ntp1758
Rp1759
(dp1760
g13
I14
sg16
I75
sbag0
(g44
g2
Ntp1761
Rp1762
(dp1763
g13
I15
sg16
I75
sbag0
(g44
g2
Ntp1764
Rp1765
(dp1766
g13
I16
sg16
I75
sbag0
(g44
g2
Ntp1767
Rp1768
(dp1769
g13
I17
sg16
I75
sbag0
(g44
g2
Ntp1770
Rp1771
(dp1772
g13
I18
sg16
I75
sbag0
(g44
g2
Ntp1773
Rp1774
(dp1775
g13
I19
sg16
I75
sbag0
(g44
g2
Ntp1776
Rp1777
(dp1778
g13
I20
sg16
I75
sbag0
(g44
g2
Ntp1779
Rp1780
(dp1781
g13
I21
sg16
I75
sbag0
(g44
g2
Ntp1782
Rp1783
(dp1784
g13
I22
sg16
I75
sbag0
(g44
g2
Ntp1785
Rp1786
(dp1787
g13
I4
sg16
I76
sbag0
(g44
g2
Ntp1788
Rp1789
(dp1790
g13
I5
sg16
I76
sbag0
(g44
g2
Ntp1791
Rp1792
(dp1793
g13
I6
sg16
I76
sbag0
(g44
g2
Ntp1794
Rp1795
(dp1796
g13
I7
sg16
I76
sbag0
(g44
g2
Ntp1797
Rp1798
(dp1799
g13
I8
sg16
I76
sbag0
(g44
g2
Ntp1800
Rp1801
(dp1802
g13
I9
sg16
I76
sbag0
(g44
g2
Ntp1803
Rp1804
(dp1805
g13
I10
sg16
I76
sbag0
(g44
g2
Ntp1806
Rp1807
(dp1808
g13
I11
sg16
I76
sbag0
(g44
g2
Ntp1809
Rp1810
(dp1811
g13
I12
sg16
I76
sbag0
(g44
g2
Ntp1812
Rp1813
(dp1814
g13
I13
sg16
I76
sbag0
(g44
g2
Ntp1815
Rp1816
(dp1817
g13
I14
sg16
I76
sbag0
(g44
g2
Ntp1818
Rp1819
(dp1820
g13
I15
sg16
I76
sbag0
(g44
g2
Ntp1821
Rp1822
(dp1823
g13
I16
sg16
I76
sbag0
(g44
g2
Ntp1824
Rp1825
(dp1826
g13
I17
sg16
I76
sbag0
(g44
g2
Ntp1827
Rp1828
(dp1829
g13
I18
sg16
I76
sbag0
(g44
g2
Ntp1830
Rp1831
(dp1832
g13
I19
sg16
I76
sbag0
(g44
g2
Ntp1833
Rp1834
(dp1835
g13
I20
sg16
I76
sbag0
(g44
g2
Ntp1836
Rp1837
(dp1838
g13
I21
sg16
I76
sbag0
(g44
g2
Ntp1839
Rp1840
(dp1841
g13
I22
sg16
I76
sbag0
(g44
g2
Ntp1842
Rp1843
(dp1844
g13
I4
sg16
I77
sbag0
(g44
g2
Ntp1845
Rp1846
(dp1847
g13
I5
sg16
I77
sbag0
(g44
g2
Ntp1848
Rp1849
(dp1850
g13
I6
sg16
I77
sbag0
(g44
g2
Ntp1851
Rp1852
(dp1853
g13
I7
sg16
I77
sbag0
(g44
g2
Ntp1854
Rp1855
(dp1856
g13
I8
sg16
I77
sbag0
(g44
g2
Ntp1857
Rp1858
(dp1859
g13
I9
sg16
I77
sbag0
(g44
g2
Ntp1860
Rp1861
(dp1862
g13
I10
sg16
I77
sbag0
(g44
g2
Ntp1863
Rp1864
(dp1865
g13
I11
sg16
I77
sbag0
(g44
g2
Ntp1866
Rp1867
(dp1868
g13
I12
sg16
I77
sbag0
(g44
g2
Ntp1869
Rp1870
(dp1871
g13
I13
sg16
I77
sbag0
(g44
g2
Ntp1872
Rp1873
(dp1874
g13
I14
sg16
I77
sbag0
(g44
g2
Ntp1875
Rp1876
(dp1877
g13
I15
sg16
I77
sbag0
(g44
g2
Ntp1878
Rp1879
(dp1880
g13
I16
sg16
I77
sbag0
(g44
g2
Ntp1881
Rp1882
(dp1883
g13
I17
sg16
I77
sbag0
(g44
g2
Ntp1884
Rp1885
(dp1886
g13
I18
sg16
I77
sbag0
(g44
g2
Ntp1887
Rp1888
(dp1889
g13
I19
sg16
I77
sbag0
(g44
g2
Ntp1890
Rp1891
(dp1892
g13
I20
sg16
I77
sbag0
(g44
g2
Ntp1893
Rp1894
(dp1895
g13
I21
sg16
I77
sbag0
(g44
g2
Ntp1896
Rp1897
(dp1898
g13
I22
sg16
I77
sbag0
(g44
g2
Ntp1899
Rp1900
(dp1901
g13
I4
sg16
I78
sbag0
(g44
g2
Ntp1902
Rp1903
(dp1904
g13
I5
sg16
I78
sbag0
(g44
g2
Ntp1905
Rp1906
(dp1907
g13
I6
sg16
I78
sbag0
(g44
g2
Ntp1908
Rp1909
(dp1910
g13
I7
sg16
I78
sbag0
(g44
g2
Ntp1911
Rp1912
(dp1913
g13
I8
sg16
I78
sbag0
(g44
g2
Ntp1914
Rp1915
(dp1916
g13
I9
sg16
I78
sbag0
(g44
g2
Ntp1917
Rp1918
(dp1919
g13
I10
sg16
I78
sbag0
(g44
g2
Ntp1920
Rp1921
(dp1922
g13
I11
sg16
I78
sbag0
(g44
g2
Ntp1923
Rp1924
(dp1925
g13
I12
sg16
I78
sbag0
(g44
g2
Ntp1926
Rp1927
(dp1928
g13
I13
sg16
I78
sbag0
(g44
g2
Ntp1929
Rp1930
(dp1931
g13
I14
sg16
I78
sbag0
(g44
g2
Ntp1932
Rp1933
(dp1934
g13
I15
sg16
I78
sbag0
(g44
g2
Ntp1935
Rp1936
(dp1937
g13
I16
sg16
I78
sbag0
(g44
g2
Ntp1938
Rp1939
(dp1940
g13
I17
sg16
I78
sbag0
(g44
g2
Ntp1941
Rp1942
(dp1943
g13
I18
sg16
I78
sbag0
(g44
g2
Ntp1944
Rp1945
(dp1946
g13
I19
sg16
I78
sbag0
(g44
g2
Ntp1947
Rp1948
(dp1949
g13
I20
sg16
I78
sbag0
(g44
g2
Ntp1950
Rp1951
(dp1952
g13
I21
sg16
I78
sbag0
(g44
g2
Ntp1953
Rp1954
(dp1955
g13
I22
sg16
I78
sbag0
(g44
g2
Ntp1956
Rp1957
(dp1958
g13
I4
sg16
I79
sbag0
(g44
g2
Ntp1959
Rp1960
(dp1961
g13
I5
sg16
I79
sbag0
(g44
g2
Ntp1962
Rp1963
(dp1964
g13
I6
sg16
I79
sbag0
(g44
g2
Ntp1965
Rp1966
(dp1967
g13
I7
sg16
I79
sbag0
(g44
g2
Ntp1968
Rp1969
(dp1970
g13
I8
sg16
I79
sbag0
(g44
g2
Ntp1971
Rp1972
(dp1973
g13
I9
sg16
I79
sbag0
(g44
g2
Ntp1974
Rp1975
(dp1976
g13
I10
sg16
I79
sbag0
(g44
g2
Ntp1977
Rp1978
(dp1979
g13
I11
sg16
I79
sbag0
(g44
g2
Ntp1980
Rp1981
(dp1982
g13
I12
sg16
I79
sbag0
(g44
g2
Ntp1983
Rp1984
(dp1985
g13
I13
sg16
I79
sbag0
(g44
g2
Ntp1986
Rp1987
(dp1988
g13
I14
sg16
I79
sbag0
(g44
g2
Ntp1989
Rp1990
(dp1991
g13
I15
sg16
I79
sbag0
(g44
g2
Ntp1992
Rp1993
(dp1994
g13
I16
sg16
I79
sbag0
(g44
g2
Ntp1995
Rp1996
(dp1997
g13
I17
sg16
I79
sbag0
(g44
g2
Ntp1998
Rp1999
(dp2000
g13
I18
sg16
I79
sbag0
(g44
g2
Ntp2001
Rp2002
(dp2003
g13
I19
sg16
I79
sbag0
(g44
g2
Ntp2004
Rp2005
(dp2006
g13
I20
sg16
I79
sbag0
(g44
g2
Ntp2007
Rp2008
(dp2009
g13
I21
sg16
I79
sbag0
(g44
g2
Ntp2010
Rp2011
(dp2012
g13
I22
sg16
I79
sbag0
(g44
g2
Ntp2013
Rp2014
(dp2015
g13
I0
sg16
I0
sbag0
(g44
g2
Ntp2016
Rp2017
(dp2018
g13
I1
sg16
I0
sbag0
(g44
g2
Ntp2019
Rp2020
(dp2021
g13
I2
sg16
I0
sbag0
(g44
g2
Ntp2022
Rp2023
(dp2024
g13
I3
sg16
I0
sbag0
(g44
g2
Ntp2025
Rp2026
(dp2027
g13
I0
sg16
I1
sbag0
(g44
g2
Ntp2028
Rp2029
(dp2030
g13
I1
sg16
I1
sbag0
(g44
g2
Ntp2031
Rp2032
(dp2033
g13
I2
sg16
I1
sbag0
(g44
g2
Ntp2034
Rp2035
(dp2036
g13
I3
sg16
I1
sbag0
(g44
g2
Ntp2037
Rp2038
(dp2039
g13
I0
sg16
I2
sbag0
(g44
g2
Ntp2040
Rp2041
(dp2042
g13
I1
sg16
I2
sbag0
(g44
g2
Ntp2043
Rp2044
(dp2045
g13
I2
sg16
I2
sbag0
(g44
g2
Ntp2046
Rp2047
(dp2048
g13
I3
sg16
I2
sbag0
(g44
g2
Ntp2049
Rp2050
(dp2051
g13
I0
sg16
I3
sbag0
(g44
g2
Ntp2052
Rp2053
(dp2054
g13
I1
sg16
I3
sbag0
(g44
g2
Ntp2055
Rp2056
(dp2057
g13
I2
sg16
I3
sbag0
(g44
g2
Ntp2058
Rp2059
(dp2060
g13
I3
sg16
I3
sbag0
(g44
g2
Ntp2061
Rp2062
(dp2063
g13
I0
sg16
I4
sbag0
(g44
g2
Ntp2064
Rp2065
(dp2066
g13
I1
sg16
I4
sbag0
(g44
g2
Ntp2067
Rp2068
(dp2069
g13
I2
sg16
I4
sbag0
(g44
g2
Ntp2070
Rp2071
(dp2072
g13
I3
sg16
I4
sbag0
(g44
g2
Ntp2073
Rp2074
(dp2075
g13
I0
sg16
I5
sbag0
(g44
g2
Ntp2076
Rp2077
(dp2078
g13
I1
sg16
I5
sbag0
(g44
g2
Ntp2079
Rp2080
(dp2081
g13
I2
sg16
I5
sbag0
(g44
g2
Ntp2082
Rp2083
(dp2084
g13
I3
sg16
I5
sbag0
(g44
g2
Ntp2085
Rp2086
(dp2087
g13
I0
sg16
I6
sbag0
(g44
g2
Ntp2088
Rp2089
(dp2090
g13
I1
sg16
I6
sbag0
(g44
g2
Ntp2091
Rp2092
(dp2093
g13
I2
sg16
I6
sbag0
(g44
g2
Ntp2094
Rp2095
(dp2096
g13
I3
sg16
I6
sbag0
(g44
g2
Ntp2097
Rp2098
(dp2099
g13
I0
sg16
I7
sbag0
(g44
g2
Ntp2100
Rp2101
(dp2102
g13
I1
sg16
I7
sbag0
(g44
g2
Ntp2103
Rp2104
(dp2105
g13
I2
sg16
I7
sbag0
(g44
g2
Ntp2106
Rp2107
(dp2108
g13
I3
sg16
I7
sbag0
(g44
g2
Ntp2109
Rp2110
(dp2111
g13
I0
sg16
I8
sbag0
(g44
g2
Ntp2112
Rp2113
(dp2114
g13
I1
sg16
I8
sbag0
(g44
g2
Ntp2115
Rp2116
(dp2117
g13
I2
sg16
I8
sbag0
(g44
g2
Ntp2118
Rp2119
(dp2120
g13
I3
sg16
I8
sbag0
(g44
g2
Ntp2121
Rp2122
(dp2123
g13
I0
sg16
I9
sbag0
(g44
g2
Ntp2124
Rp2125
(dp2126
g13
I1
sg16
I9
sbag0
(g44
g2
Ntp2127
Rp2128
(dp2129
g13
I2
sg16
I9
sbag0
(g44
g2
Ntp2130
Rp2131
(dp2132
g13
I3
sg16
I9
sbag0
(g44
g2
Ntp2133
Rp2134
(dp2135
g13
I0
sg16
I10
sbag0
(g44
g2
Ntp2136
Rp2137
(dp2138
g13
I1
sg16
I10
sbag0
(g44
g2
Ntp2139
Rp2140
(dp2141
g13
I2
sg16
I10
sbag0
(g44
g2
Ntp2142
Rp2143
(dp2144
g13
I3
sg16
I10
sbag0
(g44
g2
Ntp2145
Rp2146
(dp2147
g13
I0
sg16
I11
sbag0
(g44
g2
Ntp2148
Rp2149
(dp2150
g13
I1
sg16
I11
sbag0
(g44
g2
Ntp2151
Rp2152
(dp2153
g13
I2
sg16
I11
sbag0
(g44
g2
Ntp2154
Rp2155
(dp2156
g13
I3
sg16
I11
sbag0
(g44
g2
Ntp2157
Rp2158
(dp2159
g13
I0
sg16
I12
sbag0
(g44
g2
Ntp2160
Rp2161
(dp2162
g13
I1
sg16
I12
sbag0
(g44
g2
Ntp2163
Rp2164
(dp2165
g13
I2
sg16
I12
sbag0
(g44
g2
Ntp2166
Rp2167
(dp2168
g13
I3
sg16
I12
sbag0
(g44
g2
Ntp2169
Rp2170
(dp2171
g13
I0
sg16
I13
sbag0
(g44
g2
Ntp2172
Rp2173
(dp2174
g13
I1
sg16
I13
sbag0
(g44
g2
Ntp2175
Rp2176
(dp2177
g13
I2
sg16
I13
sbag0
(g44
g2
Ntp2178
Rp2179
(dp2180
g13
I3
sg16
I13
sbag0
(g44
g2
Ntp2181
Rp2182
(dp2183
g13
I0
sg16
I14
sbag0
(g44
g2
Ntp2184
Rp2185
(dp2186
g13
I1
sg16
I14
sbag0
(g44
g2
Ntp2187
Rp2188
(dp2189
g13
I2
sg16
I14
sbag0
(g44
g2
Ntp2190
Rp2191
(dp2192
g13
I3
sg16
I14
sbag0
(g44
g2
Ntp2193
Rp2194
(dp2195
g13
I0
sg16
I15
sbag0
(g44
g2
Ntp2196
Rp2197
(dp2198
g13
I1
sg16
I15
sbag0
(g44
g2
Ntp2199
Rp2200
(dp2201
g13
I2
sg16
I15
sbag0
(g44
g2
Ntp2202
Rp2203
(dp2204
g13
I3
sg16
I15
sbag0
(g44
g2
Ntp2205
Rp2206
(dp2207
g13
I0
sg16
I16
sbag0
(g44
g2
Ntp2208
Rp2209
(dp2210
g13
I1
sg16
I16
sbag0
(g44
g2
Ntp2211
Rp2212
(dp2213
g13
I2
sg16
I16
sbag0
(g44
g2
Ntp2214
Rp2215
(dp2216
g13
I3
sg16
I16
sbag0
(g44
g2
Ntp2217
Rp2218
(dp2219
g13
I0
sg16
I17
sbag0
(g44
g2
Ntp2220
Rp2221
(dp2222
g13
I1
sg16
I17
sbag0
(g44
g2
Ntp2223
Rp2224
(dp2225
g13
I2
sg16
I17
sbag0
(g44
g2
Ntp2226
Rp2227
(dp2228
g13
I3
sg16
I17
sbag0
(g44
g2
Ntp2229
Rp2230
(dp2231
g13
I0
sg16
I18
sbag0
(g44
g2
Ntp2232
Rp2233
(dp2234
g13
I1
sg16
I18
sbag0
(g44
g2
Ntp2235
Rp2236
(dp2237
g13
I2
sg16
I18
sbag0
(g44
g2
Ntp2238
Rp2239
(dp2240
g13
I3
sg16
I18
sbag0
(g44
g2
Ntp2241
Rp2242
(dp2243
g13
I0
sg16
I19
sbag0
(g44
g2
Ntp2244
Rp2245
(dp2246
g13
I1
sg16
I19
sbag0
(g44
g2
Ntp2247
Rp2248
(dp2249
g13
I2
sg16
I19
sbag0
(g44
g2
Ntp2250
Rp2251
(dp2252
g13
I3
sg16
I19
sbag0
(g44
g2
Ntp2253
Rp2254
(dp2255
g13
I0
sg16
I20
sbag0
(g44
g2
Ntp2256
Rp2257
(dp2258
g13
I1
sg16
I20
sbag0
(g44
g2
Ntp2259
Rp2260
(dp2261
g13
I2
sg16
I20
sbag0
(g44
g2
Ntp2262
Rp2263
(dp2264
g13
I3
sg16
I20
sbag0
(g44
g2
Ntp2265
Rp2266
(dp2267
g13
I0
sg16
I21
sbag0
(g44
g2
Ntp2268
Rp2269
(dp2270
g13
I1
sg16
I21
sbag0
(g44
g2
Ntp2271
Rp2272
(dp2273
g13
I2
sg16
I21
sbag0
(g44
g2
Ntp2274
Rp2275
(dp2276
g13
I3
sg16
I21
sbag0
(g44
g2
Ntp2277
Rp2278
(dp2279
g13
I0
sg16
I22
sbag0
(g44
g2
Ntp2280
Rp2281
(dp2282
g13
I1
sg16
I22
sbag0
(g44
g2
Ntp2283
Rp2284
(dp2285
g13
I2
sg16
I22
sbag0
(g44
g2
Ntp2286
Rp2287
(dp2288
g13
I3
sg16
I22
sbag0
(g44
g2
Ntp2289
Rp2290
(dp2291
g13
I0
sg16
I23
sbag0
(g44
g2
Ntp2292
Rp2293
(dp2294
g13
I1
sg16
I23
sbag0
(g44
g2
Ntp2295
Rp2296
(dp2297
g13
I2
sg16
I23
sbag0
(g44
g2
Ntp2298
Rp2299
(dp2300
g13
I0
sg16
I24
sbag0
(g44
g2
Ntp2301
Rp2302
(dp2303
g13
I1
sg16
I24
sbag0
(g44
g2
Ntp2304
Rp2305
(dp2306
g13
I2
sg16
I24
sbag0
(g44
g2
Ntp2307
Rp2308
(dp2309
g13
I0
sg16
I25
sbag0
(g44
g2
Ntp2310
Rp2311
(dp2312
g13
I1
sg16
I25
sbag0
(g44
g2
Ntp2313
Rp2314
(dp2315
g13
I2
sg16
I25
sbag0
(g44
g2
Ntp2316
Rp2317
(dp2318
g13
I0
sg16
I26
sbag0
(g44
g2
Ntp2319
Rp2320
(dp2321
g13
I1
sg16
I26
sbag0
(g44
g2
Ntp2322
Rp2323
(dp2324
g13
I2
sg16
I26
sbag0
(g44
g2
Ntp2325
Rp2326
(dp2327
g13
I0
sg16
I27
sbag0
(g44
g2
Ntp2328
Rp2329
(dp2330
g13
I1
sg16
I27
sbag0
(g44
g2
Ntp2331
Rp2332
(dp2333
g13
I2
sg16
I27
sbag0
(g44
g2
Ntp2334
Rp2335
(dp2336
g13
I0
sg16
I28
sbag0
(g44
g2
Ntp2337
Rp2338
(dp2339
g13
I1
sg16
I28
sbag0
(g44
g2
Ntp2340
Rp2341
(dp2342
g13
I2
sg16
I28
sbag0
(g44
g2
Ntp2343
Rp2344
(dp2345
g13
I3
sg16
I28
sbag0
(g44
g2
Ntp2346
Rp2347
(dp2348
g13
I0
sg16
I29
sbag0
(g44
g2
Ntp2349
Rp2350
(dp2351
g13
I1
sg16
I29
sbag0
(g44
g2
Ntp2352
Rp2353
(dp2354
g13
I2
sg16
I29
sbag0
(g44
g2
Ntp2355
Rp2356
(dp2357
g13
I3
sg16
I29
sbag0
(g44
g2
Ntp2358
Rp2359
(dp2360
g13
I0
sg16
I30
sbag0
(g44
g2
Ntp2361
Rp2362
(dp2363
g13
I1
sg16
I30
sbag0
(g44
g2
Ntp2364
Rp2365
(dp2366
g13
I2
sg16
I30
sbag0
(g44
g2
Ntp2367
Rp2368
(dp2369
g13
I3
sg16
I30
sbag0
(g44
g2
Ntp2370
Rp2371
(dp2372
g13
I0
sg16
I31
sbag0
(g44
g2
Ntp2373
Rp2374
(dp2375
g13
I1
sg16
I31
sbag0
(g44
g2
Ntp2376
Rp2377
(dp2378
g13
I2
sg16
I31
sbag0
(g44
g2
Ntp2379
Rp2380
(dp2381
g13
I3
sg16
I31
sbag0
(g44
g2
Ntp2382
Rp2383
(dp2384
g13
I0
sg16
I32
sbag0
(g44
g2
Ntp2385
Rp2386
(dp2387
g13
I1
sg16
I32
sbag0
(g44
g2
Ntp2388
Rp2389
(dp2390
g13
I2
sg16
I32
sbag0
(g44
g2
Ntp2391
Rp2392
(dp2393
g13
I3
sg16
I32
sbag0
(g44
g2
Ntp2394
Rp2395
(dp2396
g13
I0
sg16
I33
sbag0
(g44
g2
Ntp2397
Rp2398
(dp2399
g13
I1
sg16
I33
sbag0
(g44
g2
Ntp2400
Rp2401
(dp2402
g13
I2
sg16
I33
sbag0
(g44
g2
Ntp2403
Rp2404
(dp2405
g13
I3
sg16
I33
sbag0
(g44
g2
Ntp2406
Rp2407
(dp2408
g13
I0
sg16
I34
sbag0
(g44
g2
Ntp2409
Rp2410
(dp2411
g13
I1
sg16
I34
sbag0
(g44
g2
Ntp2412
Rp2413
(dp2414
g13
I2
sg16
I34
sbag0
(g44
g2
Ntp2415
Rp2416
(dp2417
g13
I3
sg16
I34
sbag0
(g44
g2
Ntp2418
Rp2419
(dp2420
g13
I0
sg16
I35
sbag0
(g44
g2
Ntp2421
Rp2422
(dp2423
g13
I1
sg16
I35
sbag0
(g44
g2
Ntp2424
Rp2425
(dp2426
g13
I2
sg16
I35
sbag0
(g44
g2
Ntp2427
Rp2428
(dp2429
g13
I3
sg16
I35
sbag0
(g44
g2
Ntp2430
Rp2431
(dp2432
g13
I0
sg16
I36
sbag0
(g44
g2
Ntp2433
Rp2434
(dp2435
g13
I1
sg16
I36
sbag0
(g44
g2
Ntp2436
Rp2437
(dp2438
g13
I2
sg16
I36
sbag0
(g44
g2
Ntp2439
Rp2440
(dp2441
g13
I3
sg16
I36
sbag0
(g44
g2
Ntp2442
Rp2443
(dp2444
g13
I0
sg16
I37
sbag0
(g44
g2
Ntp2445
Rp2446
(dp2447
g13
I1
sg16
I37
sbag0
(g44
g2
Ntp2448
Rp2449
(dp2450
g13
I2
sg16
I37
sbag0
(g44
g2
Ntp2451
Rp2452
(dp2453
g13
I3
sg16
I37
sbag0
(g44
g2
Ntp2454
Rp2455
(dp2456
g13
I0
sg16
I38
sbag0
(g44
g2
Ntp2457
Rp2458
(dp2459
g13
I1
sg16
I38
sbag0
(g44
g2
Ntp2460
Rp2461
(dp2462
g13
I2
sg16
I38
sbag0
(g44
g2
Ntp2463
Rp2464
(dp2465
g13
I3
sg16
I38
sbag0
(g44
g2
Ntp2466
Rp2467
(dp2468
g13
I0
sg16
I39
sbag0
(g44
g2
Ntp2469
Rp2470
(dp2471
g13
I1
sg16
I39
sbag0
(g44
g2
Ntp2472
Rp2473
(dp2474
g13
I2
sg16
I39
sbag0
(g44
g2
Ntp2475
Rp2476
(dp2477
g13
I3
sg16
I39
sbag0
(g44
g2
Ntp2478
Rp2479
(dp2480
g13
I0
sg16
I40
sbag0
(g44
g2
Ntp2481
Rp2482
(dp2483
g13
I1
sg16
I40
sbag0
(g44
g2
Ntp2484
Rp2485
(dp2486
g13
I2
sg16
I40
sbag0
(g44
g2
Ntp2487
Rp2488
(dp2489
g13
I3
sg16
I40
sbag0
(g44
g2
Ntp2490
Rp2491
(dp2492
g13
I0
sg16
I41
sbag0
(g44
g2
Ntp2493
Rp2494
(dp2495
g13
I1
sg16
I41
sbag0
(g44
g2
Ntp2496
Rp2497
(dp2498
g13
I2
sg16
I41
sbag0
(g44
g2
Ntp2499
Rp2500
(dp2501
g13
I3
sg16
I41
sbag0
(g44
g2
Ntp2502
Rp2503
(dp2504
g13
I0
sg16
I42
sbag0
(g44
g2
Ntp2505
Rp2506
(dp2507
g13
I1
sg16
I42
sbag0
(g44
g2
Ntp2508
Rp2509
(dp2510
g13
I2
sg16
I42
sbag0
(g44
g2
Ntp2511
Rp2512
(dp2513
g13
I3
sg16
I42
sbag0
(g44
g2
Ntp2514
Rp2515
(dp2516
g13
I0
sg16
I43
sbag0
(g44
g2
Ntp2517
Rp2518
(dp2519
g13
I1
sg16
I43
sbag0
(g44
g2
Ntp2520
Rp2521
(dp2522
g13
I2
sg16
I43
sbag0
(g44
g2
Ntp2523
Rp2524
(dp2525
g13
I3
sg16
I43
sbag0
(g44
g2
Ntp2526
Rp2527
(dp2528
g13
I0
sg16
I44
sbag0
(g44
g2
Ntp2529
Rp2530
(dp2531
g13
I1
sg16
I44
sbag0
(g44
g2
Ntp2532
Rp2533
(dp2534
g13
I2
sg16
I44
sbag0
(g44
g2
Ntp2535
Rp2536
(dp2537
g13
I3
sg16
I44
sbag0
(g44
g2
Ntp2538
Rp2539
(dp2540
g13
I0
sg16
I45
sbag0
(g44
g2
Ntp2541
Rp2542
(dp2543
g13
I1
sg16
I45
sbag0
(g44
g2
Ntp2544
Rp2545
(dp2546
g13
I2
sg16
I45
sbag0
(g44
g2
Ntp2547
Rp2548
(dp2549
g13
I3
sg16
I45
sbag0
(g44
g2
Ntp2550
Rp2551
(dp2552
g13
I0
sg16
I46
sbag0
(g44
g2
Ntp2553
Rp2554
(dp2555
g13
I1
sg16
I46
sbag0
(g44
g2
Ntp2556
Rp2557
(dp2558
g13
I2
sg16
I46
sbag0
(g44
g2
Ntp2559
Rp2560
(dp2561
g13
I3
sg16
I46
sbag0
(g44
g2
Ntp2562
Rp2563
(dp2564
g13
I0
sg16
I47
sbag0
(g44
g2
Ntp2565
Rp2566
(dp2567
g13
I1
sg16
I47
sbag0
(g44
g2
Ntp2568
Rp2569
(dp2570
g13
I2
sg16
I47
sbag0
(g44
g2
Ntp2571
Rp2572
(dp2573
g13
I3
sg16
I47
sbag0
(g44
g2
Ntp2574
Rp2575
(dp2576
g13
I0
sg16
I48
sbag0
(g44
g2
Ntp2577
Rp2578
(dp2579
g13
I1
sg16
I48
sbag0
(g44
g2
Ntp2580
Rp2581
(dp2582
g13
I2
sg16
I48
sbag0
(g44
g2
Ntp2583
Rp2584
(dp2585
g13
I3
sg16
I48
sbag0
(g44
g2
Ntp2586
Rp2587
(dp2588
g13
I0
sg16
I49
sbag0
(g44
g2
Ntp2589
Rp2590
(dp2591
g13
I1
sg16
I49
sbag0
(g44
g2
Ntp2592
Rp2593
(dp2594
g13
I2
sg16
I49
sbag0
(g44
g2
Ntp2595
Rp2596
(dp2597
g13
I3
sg16
I49
sbag0
(g44
g2
Ntp2598
Rp2599
(dp2600
g13
I0
sg16
I50
sbag0
(g44
g2
Ntp2601
Rp2602
(dp2603
g13
I1
sg16
I50
sbag0
(g44
g2
Ntp2604
Rp2605
(dp2606
g13
I2
sg16
I50
sbag0
(g44
g2
Ntp2607
Rp2608
(dp2609
g13
I3
sg16
I50
sbag0
(g44
g2
Ntp2610
Rp2611
(dp2612
g13
I0
sg16
I59
sbag0
(g44
g2
Ntp2613
Rp2614
(dp2615
g13
I1
sg16
I59
sbag0
(g44
g2
Ntp2616
Rp2617
(dp2618
g13
I2
sg16
I59
sbag0
(g44
g2
Ntp2619
Rp2620
(dp2621
g13
I3
sg16
I59
sbag0
(g44
g2
Ntp2622
Rp2623
(dp2624
g13
I0
sg16
I60
sbag0
(g44
g2
Ntp2625
Rp2626
(dp2627
g13
I1
sg16
I60
sbag0
(g44
g2
Ntp2628
Rp2629
(dp2630
g13
I2
sg16
I60
sbag0
(g44
g2
Ntp2631
Rp2632
(dp2633
g13
I3
sg16
I60
sbag0
(g44
g2
Ntp2634
Rp2635
(dp2636
g13
I0
sg16
I61
sbag0
(g44
g2
Ntp2637
Rp2638
(dp2639
g13
I1
sg16
I61
sbag0
(g44
g2
Ntp2640
Rp2641
(dp2642
g13
I2
sg16
I61
sbag0
(g44
g2
Ntp2643
Rp2644
(dp2645
g13
I3
sg16
I61
sbag0
(g44
g2
Ntp2646
Rp2647
(dp2648
g13
I0
sg16
I62
sbag0
(g44
g2
Ntp2649
Rp2650
(dp2651
g13
I1
sg16
I62
sbag0
(g44
g2
Ntp2652
Rp2653
(dp2654
g13
I2
sg16
I62
sbag0
(g44
g2
Ntp2655
Rp2656
(dp2657
g13
I3
sg16
I62
sbag0
(g44
g2
Ntp2658
Rp2659
(dp2660
g13
I0
sg16
I63
sbag0
(g44
g2
Ntp2661
Rp2662
(dp2663
g13
I1
sg16
I63
sbag0
(g44
g2
Ntp2664
Rp2665
(dp2666
g13
I2
sg16
I63
sbag0
(g44
g2
Ntp2667
Rp2668
(dp2669
g13
I3
sg16
I63
sbag0
(g44
g2
Ntp2670
Rp2671
(dp2672
g13
I0
sg16
I64
sbag0
(g44
g2
Ntp2673
Rp2674
(dp2675
g13
I1
sg16
I64
sbag0
(g44
g2
Ntp2676
Rp2677
(dp2678
g13
I2
sg16
I64
sbag0
(g44
g2
Ntp2679
Rp2680
(dp2681
g13
I3
sg16
I64
sbag0
(g44
g2
Ntp2682
Rp2683
(dp2684
g13
I0
sg16
I65
sbag0
(g44
g2
Ntp2685
Rp2686
(dp2687
g13
I1
sg16
I65
sbag0
(g44
g2
Ntp2688
Rp2689
(dp2690
g13
I2
sg16
I65
sbag0
(g44
g2
Ntp2691
Rp2692
(dp2693
g13
I3
sg16
I65
sbag0
(g44
g2
Ntp2694
Rp2695
(dp2696
g13
I0
sg16
I66
sbag0
(g44
g2
Ntp2697
Rp2698
(dp2699
g13
I1
sg16
I66
sbag0
(g44
g2
Ntp2700
Rp2701
(dp2702
g13
I2
sg16
I66
sbag0
(g44
g2
Ntp2703
Rp2704
(dp2705
g13
I3
sg16
I66
sbag0
(g44
g2
Ntp2706
Rp2707
(dp2708
g13
I0
sg16
I67
sbag0
(g44
g2
Ntp2709
Rp2710
(dp2711
g13
I1
sg16
I67
sbag0
(g44
g2
Ntp2712
Rp2713
(dp2714
g13
I2
sg16
I67
sbag0
(g44
g2
Ntp2715
Rp2716
(dp2717
g13
I3
sg16
I67
sbag0
(g44
g2
Ntp2718
Rp2719
(dp2720
g13
I0
sg16
I68
sbag0
(g44
g2
Ntp2721
Rp2722
(dp2723
g13
I1
sg16
I68
sbag0
(g44
g2
Ntp2724
Rp2725
(dp2726
g13
I2
sg16
I68
sbag0
(g44
g2
Ntp2727
Rp2728
(dp2729
g13
I3
sg16
I68
sbag0
(g44
g2
Ntp2730
Rp2731
(dp2732
g13
I0
sg16
I69
sbag0
(g44
g2
Ntp2733
Rp2734
(dp2735
g13
I1
sg16
I69
sbag0
(g44
g2
Ntp2736
Rp2737
(dp2738
g13
I2
sg16
I69
sbag0
(g44
g2
Ntp2739
Rp2740
(dp2741
g13
I3
sg16
I69
sbag0
(g44
g2
Ntp2742
Rp2743
(dp2744
g13
I0
sg16
I70
sbag0
(g44
g2
Ntp2745
Rp2746
(dp2747
g13
I1
sg16
I70
sbag0
(g44
g2
Ntp2748
Rp2749
(dp2750
g13
I2
sg16
I70
sbag0
(g44
g2
Ntp2751
Rp2752
(dp2753
g13
I3
sg16
I70
sbag0
(g44
g2
Ntp2754
Rp2755
(dp2756
g13
I0
sg16
I71
sbag0
(g44
g2
Ntp2757
Rp2758
(dp2759
g13
I1
sg16
I71
sbag0
(g44
g2
Ntp2760
Rp2761
(dp2762
g13
I2
sg16
I71
sbag0
(g44
g2
Ntp2763
Rp2764
(dp2765
g13
I3
sg16
I71
sbag0
(g44
g2
Ntp2766
Rp2767
(dp2768
g13
I0
sg16
I72
sbag0
(g44
g2
Ntp2769
Rp2770
(dp2771
g13
I1
sg16
I72
sbag0
(g44
g2
Ntp2772
Rp2773
(dp2774
g13
I2
sg16
I72
sbag0
(g44
g2
Ntp2775
Rp2776
(dp2777
g13
I3
sg16
I72
sbag0
(g44
g2
Ntp2778
Rp2779
(dp2780
g13
I0
sg16
I73
sbag0
(g44
g2
Ntp2781
Rp2782
(dp2783
g13
I1
sg16
I73
sbag0
(g44
g2
Ntp2784
Rp2785
(dp2786
g13
I2
sg16
I73
sbag0
(g44
g2
Ntp2787
Rp2788
(dp2789
g13
I3
sg16
I73
sbag0
(g44
g2
Ntp2790
Rp2791
(dp2792
g13
I0
sg16
I74
sbag0
(g44
g2
Ntp2793
Rp2794
(dp2795
g13
I1
sg16
I74
sbag0
(g44
g2
Ntp2796
Rp2797
(dp2798
g13
I2
sg16
I74
sbag0
(g44
g2
Ntp2799
Rp2800
(dp2801
g13
I3
sg16
I74
sbag0
(g44
g2
Ntp2802
Rp2803
(dp2804
g13
I0
sg16
I75
sbag0
(g44
g2
Ntp2805
Rp2806
(dp2807
g13
I1
sg16
I75
sbag0
(g44
g2
Ntp2808
Rp2809
(dp2810
g13
I2
sg16
I75
sbag0
(g44
g2
Ntp2811
Rp2812
(dp2813
g13
I3
sg16
I75
sbag0
(g44
g2
Ntp2814
Rp2815
(dp2816
g13
I0
sg16
I76
sbag0
(g44
g2
Ntp2817
Rp2818
(dp2819
g13
I1
sg16
I76
sbag0
(g44
g2
Ntp2820
Rp2821
(dp2822
g13
I2
sg16
I76
sbag0
(g44
g2
Ntp2823
Rp2824
(dp2825
g13
I3
sg16
I76
sbag0
(g44
g2
Ntp2826
Rp2827
(dp2828
g13
I0
sg16
I77
sbag0
(g44
g2
Ntp2829
Rp2830
(dp2831
g13
I1
sg16
I77
sbag0
(g44
g2
Ntp2832
Rp2833
(dp2834
g13
I2
sg16
I77
sbag0
(g44
g2
Ntp2835
Rp2836
(dp2837
g13
I3
sg16
I77
sbag0
(g44
g2
Ntp2838
Rp2839
(dp2840
g13
I0
sg16
I78
sbag0
(g44
g2
Ntp2841
Rp2842
(dp2843
g13
I1
sg16
I78
sbag0
(g44
g2
Ntp2844
Rp2845
(dp2846
g13
I2
sg16
I78
sbag0
(g44
g2
Ntp2847
Rp2848
(dp2849
g13
I3
sg16
I78
sbag0
(g44
g2
Ntp2850
Rp2851
(dp2852
g13
I0
sg16
I79
sbag0
(g44
g2
Ntp2853
Rp2854
(dp2855
g13
I1
sg16
I79
sbag0
(g44
g2
Ntp2856
Rp2857
(dp2858
g13
I2
sg16
I79
sbag0
(g44
g2
Ntp2859
Rp2860
(dp2861
g13
I3
sg16
I79
sbag0
(g44
g2
Ntp2862
Rp2863
(dp2864
g13
I4
sg16
I15
sbag0
(g44
g2
Ntp2865
Rp2866
(dp2867
g13
I6
sg16
I15
sbag0
(g44
g2
Ntp2868
Rp2869
(dp2870
g13
I8
sg16
I15
sbag0
(g44
g2
Ntp2871
Rp2872
(dp2873
g13
I10
sg16
I15
sbag0
(g44
g2
Ntp2874
Rp2875
(dp2876
g13
I15
sg16
I4
sbag0
(g44
g2
Ntp2877
Rp2878
(dp2879
g13
I15
sg16
I6
sbag0
(g44
g2
Ntp2880
Rp2881
(dp2882
g13
I15
sg16
I8
sbag0
(g44
g2
Ntp2883
Rp2884
(dp2885
g13
I15
sg16
I10
sbag0
(g44
g2
Ntp2886
Rp2887
(dp2888
g13
I15
sg16
I11
sbag0
(g44
g2
Ntp2889
Rp2890
(dp2891
g13
I38
sg16
I3
sbag0
(g44
g2
Ntp2892
Rp2893
(dp2894
g13
I38
sg16
I4
sbag0
(g44
g2
Ntp2895
Rp2896
(dp2897
g13
I38
sg16
I6
sbag0
(g44
g2
Ntp2898
Rp2899
(dp2900
g13
I38
sg16
I8
sbag0
(g44
g2
Ntp2901
Rp2902
(dp2903
g13
I38
sg16
I10
sbag0
(g44
g2
Ntp2904
Rp2905
(dp2906
g13
I38
sg16
I12
sbag0
(g44
g2
Ntp2907
Rp2908
(dp2909
g13
I38
sg16
I14
sbag0
(g44
g2
Ntp2910
Rp2911
(dp2912
g13
I38
sg16
I16
sbag0
(g44
g2
Ntp2913
Rp2914
(dp2915
g13
I38
sg16
I18
sbag0
(g44
g2
Ntp2916
Rp2917
(dp2918
g13
I38
sg16
I20
sbag0
(g44
g2
Ntp2919
Rp2920
(dp2921
g13
I38
sg16
I22
sbag0
(g44
g2
Ntp2922
Rp2923
(dp2924
g13
I23
sg16
I3
sbag0
(g44
g2
Ntp2925
Rp2926
(dp2927
g13
I24
sg16
I3
sbag0
(g44
g2
Ntp2928
Rp2929
(dp2930
g13
I25
sg16
I3
sbag0
(g44
g2
Ntp2931
Rp2932
(dp2933
g13
I26
sg16
I3
sbag0
(g44
g2
Ntp2934
Rp2935
(dp2936
g13
I27
sg16
I3
sbag0
(g44
g2
Ntp2937
Rp2938
(dp2939
g13
I28
sg16
I3
sbag0
(g44
g2
Ntp2940
Rp2941
(dp2942
g13
I23
sg16
I4
sbag0
(g44
g2
Ntp2943
Rp2944
(dp2945
g13
I24
sg16
I4
sbag0
(g44
g2
Ntp2946
Rp2947
(dp2948
g13
I25
sg16
I4
sbag0
(g44
g2
Ntp2949
Rp2950
(dp2951
g13
I26
sg16
I4
sbag0
(g44
g2
Ntp2952
Rp2953
(dp2954
g13
I27
sg16
I4
sbag0
(g44
g2
Ntp2955
Rp2956
(dp2957
g13
I28
sg16
I4
sbag0
(g44
g2
Ntp2958
Rp2959
(dp2960
g13
I23
sg16
I5
sbag0
(g44
g2
Ntp2961
Rp2962
(dp2963
g13
I24
sg16
I5
sbag0
(g44
g2
Ntp2964
Rp2965
(dp2966
g13
I25
sg16
I5
sbag0
(g44
g2
Ntp2967
Rp2968
(dp2969
g13
I26
sg16
I5
sbag0
(g44
g2
Ntp2970
Rp2971
(dp2972
g13
I27
sg16
I5
sbag0
(g44
g2
Ntp2973
Rp2974
(dp2975
g13
I28
sg16
I5
sbag0
(g44
g2
Ntp2976
Rp2977
(dp2978
g13
I23
sg16
I6
sbag0
(g44
g2
Ntp2979
Rp2980
(dp2981
g13
I24
sg16
I6
sbag0
(g44
g2
Ntp2982
Rp2983
(dp2984
g13
I25
sg16
I6
sbag0
(g44
g2
Ntp2985
Rp2986
(dp2987
g13
I26
sg16
I6
sbag0
(g44
g2
Ntp2988
Rp2989
(dp2990
g13
I27
sg16
I6
sbag0
(g44
g2
Ntp2991
Rp2992
(dp2993
g13
I28
sg16
I6
sbag0
(g44
g2
Ntp2994
Rp2995
(dp2996
g13
I23
sg16
I7
sbag0
(g44
g2
Ntp2997
Rp2998
(dp2999
g13
I24
sg16
I7
sbag0
(g44
g2
Ntp3000
Rp3001
(dp3002
g13
I25
sg16
I7
sbag0
(g44
g2
Ntp3003
Rp3004
(dp3005
g13
I26
sg16
I7
sbag0
(g44
g2
Ntp3006
Rp3007
(dp3008
g13
I27
sg16
I7
sbag0
(g44
g2
Ntp3009
Rp3010
(dp3011
g13
I28
sg16
I7
sbag0
(g44
g2
Ntp3012
Rp3013
(dp3014
g13
I23
sg16
I8
sbag0
(g44
g2
Ntp3015
Rp3016
(dp3017
g13
I24
sg16
I8
sbag0
(g44
g2
Ntp3018
Rp3019
(dp3020
g13
I25
sg16
I8
sbag0
(g44
g2
Ntp3021
Rp3022
(dp3023
g13
I26
sg16
I8
sbag0
(g44
g2
Ntp3024
Rp3025
(dp3026
g13
I27
sg16
I8
sbag0
(g44
g2
Ntp3027
Rp3028
(dp3029
g13
I28
sg16
I8
sbag0
(g44
g2
Ntp3030
Rp3031
(dp3032
g13
I23
sg16
I9
sbag0
(g44
g2
Ntp3033
Rp3034
(dp3035
g13
I24
sg16
I9
sbag0
(g44
g2
Ntp3036
Rp3037
(dp3038
g13
I25
sg16
I9
sbag0
(g44
g2
Ntp3039
Rp3040
(dp3041
g13
I26
sg16
I9
sbag0
(g44
g2
Ntp3042
Rp3043
(dp3044
g13
I27
sg16
I9
sbag0
(g44
g2
Ntp3045
Rp3046
(dp3047
g13
I28
sg16
I9
sbag0
(g44
g2
Ntp3048
Rp3049
(dp3050
g13
I23
sg16
I10
sbag0
(g44
g2
Ntp3051
Rp3052
(dp3053
g13
I24
sg16
I10
sbag0
(g44
g2
Ntp3054
Rp3055
(dp3056
g13
I25
sg16
I10
sbag0
(g44
g2
Ntp3057
Rp3058
(dp3059
g13
I26
sg16
I10
sbag0
(g44
g2
Ntp3060
Rp3061
(dp3062
g13
I27
sg16
I10
sbag0
(g44
g2
Ntp3063
Rp3064
(dp3065
g13
I28
sg16
I10
sbag0
(g44
g2
Ntp3066
Rp3067
(dp3068
g13
I23
sg16
I11
sbag0
(g44
g2
Ntp3069
Rp3070
(dp3071
g13
I24
sg16
I11
sbag0
(g44
g2
Ntp3072
Rp3073
(dp3074
g13
I25
sg16
I11
sbag0
(g44
g2
Ntp3075
Rp3076
(dp3077
g13
I26
sg16
I11
sbag0
(g44
g2
Ntp3078
Rp3079
(dp3080
g13
I27
sg16
I11
sbag0
(g44
g2
Ntp3081
Rp3082
(dp3083
g13
I28
sg16
I11
sbag0
(g44
g2
Ntp3084
Rp3085
(dp3086
g13
I23
sg16
I12
sbag0
(g44
g2
Ntp3087
Rp3088
(dp3089
g13
I24
sg16
I12
sbag0
(g44
g2
Ntp3090
Rp3091
(dp3092
g13
I25
sg16
I12
sbag0
(g44
g2
Ntp3093
Rp3094
(dp3095
g13
I26
sg16
I12
sbag0
(g44
g2
Ntp3096
Rp3097
(dp3098
g13
I27
sg16
I12
sbag0
(g44
g2
Ntp3099
Rp3100
(dp3101
g13
I28
sg16
I12
sbag0
(g44
g2
Ntp3102
Rp3103
(dp3104
g13
I23
sg16
I13
sbag0
(g44
g2
Ntp3105
Rp3106
(dp3107
g13
I24
sg16
I13
sbag0
(g44
g2
Ntp3108
Rp3109
(dp3110
g13
I25
sg16
I13
sbag0
(g44
g2
Ntp3111
Rp3112
(dp3113
g13
I26
sg16
I13
sbag0
(g44
g2
Ntp3114
Rp3115
(dp3116
g13
I27
sg16
I13
sbag0
(g44
g2
Ntp3117
Rp3118
(dp3119
g13
I28
sg16
I13
sbag0
(g44
g2
Ntp3120
Rp3121
(dp3122
g13
I23
sg16
I14
sbag0
(g44
g2
Ntp3123
Rp3124
(dp3125
g13
I24
sg16
I14
sbag0
(g44
g2
Ntp3126
Rp3127
(dp3128
g13
I25
sg16
I14
sbag0
(g44
g2
Ntp3129
Rp3130
(dp3131
g13
I26
sg16
I14
sbag0
(g44
g2
Ntp3132
Rp3133
(dp3134
g13
I27
sg16
I14
sbag0
(g44
g2
Ntp3135
Rp3136
(dp3137
g13
I28
sg16
I14
sbag0
(g44
g2
Ntp3138
Rp3139
(dp3140
g13
I23
sg16
I15
sbag0
(g44
g2
Ntp3141
Rp3142
(dp3143
g13
I24
sg16
I15
sbag0
(g44
g2
Ntp3144
Rp3145
(dp3146
g13
I25
sg16
I15
sbag0
(g44
g2
Ntp3147
Rp3148
(dp3149
g13
I26
sg16
I15
sbag0
(g44
g2
Ntp3150
Rp3151
(dp3152
g13
I27
sg16
I15
sbag0
(g44
g2
Ntp3153
Rp3154
(dp3155
g13
I28
sg16
I15
sbag0
(g44
g2
Ntp3156
Rp3157
(dp3158
g13
I23
sg16
I16
sbag0
(g44
g2
Ntp3159
Rp3160
(dp3161
g13
I24
sg16
I16
sbag0
(g44
g2
Ntp3162
Rp3163
(dp3164
g13
I25
sg16
I16
sbag0
(g44
g2
Ntp3165
Rp3166
(dp3167
g13
I26
sg16
I16
sbag0
(g44
g2
Ntp3168
Rp3169
(dp3170
g13
I27
sg16
I16
sbag0
(g44
g2
Ntp3171
Rp3172
(dp3173
g13
I28
sg16
I16
sbag0
(g44
g2
Ntp3174
Rp3175
(dp3176
g13
I23
sg16
I17
sbag0
(g44
g2
Ntp3177
Rp3178
(dp3179
g13
I24
sg16
I17
sbag0
(g44
g2
Ntp3180
Rp3181
(dp3182
g13
I25
sg16
I17
sbag0
(g44
g2
Ntp3183
Rp3184
(dp3185
g13
I26
sg16
I17
sbag0
(g44
g2
Ntp3186
Rp3187
(dp3188
g13
I27
sg16
I17
sbag0
(g44
g2
Ntp3189
Rp3190
(dp3191
g13
I28
sg16
I17
sbag0
(g44
g2
Ntp3192
Rp3193
(dp3194
g13
I27
sg16
I20
sbag0
(g44
g2
Ntp3195
Rp3196
(dp3197
g13
I28
sg16
I20
sbag0
(g44
g2
Ntp3198
Rp3199
(dp3200
g13
I27
sg16
I21
sbag0
(g44
g2
Ntp3201
Rp3202
(dp3203
g13
I28
sg16
I21
sbag0
(g44
g2
Ntp3204
Rp3205
(dp3206
g13
I27
sg16
I22
sbag0
(g44
g2
Ntp3207
Rp3208
(dp3209
g13
I28
sg16
I22
sbag0
(g44
g2
Ntp3210
Rp3211
(dp3212
g13
I27
sg16
I23
sbag0
(g44
g2
Ntp3213
Rp3214
(dp3215
g13
I28
sg16
I23
sbag0
(g44
g2
Ntp3216
Rp3217
(dp3218
g13
I27
sg16
I24
sbag0
(g44
g2
Ntp3219
Rp3220
(dp3221
g13
I28
sg16
I24
sbag0
(g44
g2
Ntp3222
Rp3223
(dp3224
g13
I27
sg16
I25
sbag0
(g44
g2
Ntp3225
Rp3226
(dp3227
g13
I28
sg16
I25
sbag0
(g44
g2
Ntp3228
Rp3229
(dp3230
g13
I27
sg16
I26
sbag0
(g44
g2
Ntp3231
Rp3232
(dp3233
g13
I28
sg16
I26
sbag0
(g44
g2
Ntp3234
Rp3235
(dp3236
g13
I27
sg16
I27
sbag0
(g44
g2
Ntp3237
Rp3238
(dp3239
g13
I28
sg16
I27
sbag0
(g44
g2
Ntp3240
Rp3241
(dp3242
g13
I27
sg16
I28
sbag0
(g44
g2
Ntp3243
Rp3244
(dp3245
g13
I28
sg16
I28
sbag0
(g44
g2
Ntp3246
Rp3247
(dp3248
g13
I27
sg16
I29
sbag0
(g44
g2
Ntp3249
Rp3250
(dp3251
g13
I28
sg16
I29
sbag0
(g44
g2
Ntp3252
Rp3253
(dp3254
g13
I27
sg16
I30
sbag0
(g44
g2
Ntp3255
Rp3256
(dp3257
g13
I28
sg16
I30
sbag0
(g44
g2
Ntp3258
Rp3259
(dp3260
g13
I27
sg16
I31
sbag0
(g44
g2
Ntp3261
Rp3262
(dp3263
g13
I28
sg16
I31
sbag0
(g44
g2
Ntp3264
Rp3265
(dp3266
g13
I27
sg16
I32
sbag0
(g44
g2
Ntp3267
Rp3268
(dp3269
g13
I28
sg16
I32
sbag0
(g44
g2
Ntp3270
Rp3271
(dp3272
g13
I27
sg16
I33
sbag0
(g44
g2
Ntp3273
Rp3274
(dp3275
g13
I28
sg16
I33
sbag0
(g44
g2
Ntp3276
Rp3277
(dp3278
g13
I27
sg16
I34
sbag0
(g44
g2
Ntp3279
Rp3280
(dp3281
g13
I28
sg16
I34
sbag0
(g44
g2
Ntp3282
Rp3283
(dp3284
g13
I27
sg16
I35
sbag0
(g44
g2
Ntp3285
Rp3286
(dp3287
g13
I28
sg16
I35
sbag0
(g44
g2
Ntp3288
Rp3289
(dp3290
g13
I27
sg16
I36
sbag0
(g44
g2
Ntp3291
Rp3292
(dp3293
g13
I28
sg16
I36
sbag0
(g44
g2
Ntp3294
Rp3295
(dp3296
g13
I29
sg16
I23
sbag0
(g44
g2
Ntp3297
Rp3298
(dp3299
g13
I30
sg16
I23
sbag0
(g44
g2
Ntp3300
Rp3301
(dp3302
g13
I31
sg16
I23
sbag0
(g44
g2
Ntp3303
Rp3304
(dp3305
g13
I32
sg16
I23
sbag0
(g44
g2
Ntp3306
Rp3307
(dp3308
g13
I33
sg16
I23
sbag0
(g44
g2
Ntp3309
Rp3310
(dp3311
g13
I34
sg16
I23
sbag0
(g44
g2
Ntp3312
Rp3313
(dp3314
g13
I35
sg16
I23
sbag0
(g44
g2
Ntp3315
Rp3316
(dp3317
g13
I36
sg16
I23
sbag0
(g44
g2
Ntp3318
Rp3319
(dp3320
g13
I37
sg16
I23
sbag0
(g44
g2
Ntp3321
Rp3322
(dp3323
g13
I38
sg16
I23
sbag0
(g44
g2
Ntp3324
Rp3325
(dp3326
g13
I39
sg16
I23
sbag0
(g44
g2
Ntp3327
Rp3328
(dp3329
g13
I40
sg16
I23
sbag0
(g44
g2
Ntp3330
Rp3331
(dp3332
g13
I41
sg16
I23
sbag0
(g44
g2
Ntp3333
Rp3334
(dp3335
g13
I42
sg16
I23
sbag0
(g44
g2
Ntp3336
Rp3337
(dp3338
g13
I43
sg16
I23
sbag0
(g44
g2
Ntp3339
Rp3340
(dp3341
g13
I44
sg16
I23
sbag0
(g44
g2
Ntp3342
Rp3343
(dp3344
g13
I45
sg16
I23
sbag0
(g44
g2
Ntp3345
Rp3346
(dp3347
g13
I29
sg16
I24
sbag0
(g44
g2
Ntp3348
Rp3349
(dp3350
g13
I30
sg16
I24
sbag0
(g44
g2
Ntp3351
Rp3352
(dp3353
g13
I31
sg16
I24
sbag0
(g44
g2
Ntp3354
Rp3355
(dp3356
g13
I32
sg16
I24
sbag0
(g44
g2
Ntp3357
Rp3358
(dp3359
g13
I33
sg16
I24
sbag0
(g44
g2
Ntp3360
Rp3361
(dp3362
g13
I34
sg16
I24
sbag0
(g44
g2
Ntp3363
Rp3364
(dp3365
g13
I35
sg16
I24
sbag0
(g44
g2
Ntp3366
Rp3367
(dp3368
g13
I36
sg16
I24
sbag0
(g44
g2
Ntp3369
Rp3370
(dp3371
g13
I37
sg16
I24
sbag0
(g44
g2
Ntp3372
Rp3373
(dp3374
g13
I38
sg16
I24
sbag0
(g44
g2
Ntp3375
Rp3376
(dp3377
g13
I39
sg16
I24
sbag0
(g44
g2
Ntp3378
Rp3379
(dp3380
g13
I40
sg16
I24
sbag0
(g44
g2
Ntp3381
Rp3382
(dp3383
g13
I41
sg16
I24
sbag0
(g44
g2
Ntp3384
Rp3385
(dp3386
g13
I42
sg16
I24
sbag0
(g44
g2
Ntp3387
Rp3388
(dp3389
g13
I43
sg16
I24
sbag0
(g44
g2
Ntp3390
Rp3391
(dp3392
g13
I44
sg16
I24
sbag0
(g44
g2
Ntp3393
Rp3394
(dp3395
g13
I45
sg16
I24
sbag0
(g44
g2
Ntp3396
Rp3397
(dp3398
g13
I29
sg16
I25
sbag0
(g44
g2
Ntp3399
Rp3400
(dp3401
g13
I30
sg16
I25
sbag0
(g44
g2
Ntp3402
Rp3403
(dp3404
g13
I31
sg16
I25
sbag0
(g44
g2
Ntp3405
Rp3406
(dp3407
g13
I32
sg16
I25
sbag0
(g44
g2
Ntp3408
Rp3409
(dp3410
g13
I33
sg16
I25
sbag0
(g44
g2
Ntp3411
Rp3412
(dp3413
g13
I34
sg16
I25
sbag0
(g44
g2
Ntp3414
Rp3415
(dp3416
g13
I35
sg16
I25
sbag0
(g44
g2
Ntp3417
Rp3418
(dp3419
g13
I36
sg16
I25
sbag0
(g44
g2
Ntp3420
Rp3421
(dp3422
g13
I37
sg16
I25
sbag0
(g44
g2
Ntp3423
Rp3424
(dp3425
g13
I38
sg16
I25
sbag0
(g44
g2
Ntp3426
Rp3427
(dp3428
g13
I39
sg16
I25
sbag0
(g44
g2
Ntp3429
Rp3430
(dp3431
g13
I40
sg16
I25
sbag0
(g44
g2
Ntp3432
Rp3433
(dp3434
g13
I41
sg16
I25
sbag0
(g44
g2
Ntp3435
Rp3436
(dp3437
g13
I42
sg16
I25
sbag0
(g44
g2
Ntp3438
Rp3439
(dp3440
g13
I43
sg16
I25
sbag0
(g44
g2
Ntp3441
Rp3442
(dp3443
g13
I44
sg16
I25
sbag0
(g44
g2
Ntp3444
Rp3445
(dp3446
g13
I45
sg16
I25
sbag0
(g44
g2
Ntp3447
Rp3448
(dp3449
g13
I29
sg16
I26
sbag0
(g44
g2
Ntp3450
Rp3451
(dp3452
g13
I30
sg16
I26
sbag0
(g44
g2
Ntp3453
Rp3454
(dp3455
g13
I31
sg16
I26
sbag0
(g44
g2
Ntp3456
Rp3457
(dp3458
g13
I32
sg16
I26
sbag0
(g44
g2
Ntp3459
Rp3460
(dp3461
g13
I33
sg16
I26
sbag0
(g44
g2
Ntp3462
Rp3463
(dp3464
g13
I34
sg16
I26
sbag0
(g44
g2
Ntp3465
Rp3466
(dp3467
g13
I35
sg16
I26
sbag0
(g44
g2
Ntp3468
Rp3469
(dp3470
g13
I36
sg16
I26
sbag0
(g44
g2
Ntp3471
Rp3472
(dp3473
g13
I37
sg16
I26
sbag0
(g44
g2
Ntp3474
Rp3475
(dp3476
g13
I38
sg16
I26
sbag0
(g44
g2
Ntp3477
Rp3478
(dp3479
g13
I39
sg16
I26
sbag0
(g44
g2
Ntp3480
Rp3481
(dp3482
g13
I40
sg16
I26
sbag0
(g44
g2
Ntp3483
Rp3484
(dp3485
g13
I41
sg16
I26
sbag0
(g44
g2
Ntp3486
Rp3487
(dp3488
g13
I42
sg16
I26
sbag0
(g44
g2
Ntp3489
Rp3490
(dp3491
g13
I43
sg16
I26
sbag0
(g44
g2
Ntp3492
Rp3493
(dp3494
g13
I44
sg16
I26
sbag0
(g44
g2
Ntp3495
Rp3496
(dp3497
g13
I45
sg16
I26
sbag0
(g44
g2
Ntp3498
Rp3499
(dp3500
g13
I29
sg16
I27
sbag0
(g44
g2
Ntp3501
Rp3502
(dp3503
g13
I30
sg16
I27
sbag0
(g44
g2
Ntp3504
Rp3505
(dp3506
g13
I31
sg16
I27
sbag0
(g44
g2
Ntp3507
Rp3508
(dp3509
g13
I32
sg16
I27
sbag0
(g44
g2
Ntp3510
Rp3511
(dp3512
g13
I33
sg16
I27
sbag0
(g44
g2
Ntp3513
Rp3514
(dp3515
g13
I34
sg16
I27
sbag0
(g44
g2
Ntp3516
Rp3517
(dp3518
g13
I35
sg16
I27
sbag0
(g44
g2
Ntp3519
Rp3520
(dp3521
g13
I36
sg16
I27
sbag0
(g44
g2
Ntp3522
Rp3523
(dp3524
g13
I37
sg16
I27
sbag0
(g44
g2
Ntp3525
Rp3526
(dp3527
g13
I38
sg16
I27
sbag0
(g44
g2
Ntp3528
Rp3529
(dp3530
g13
I39
sg16
I27
sbag0
(g44
g2
Ntp3531
Rp3532
(dp3533
g13
I40
sg16
I27
sbag0
(g44
g2
Ntp3534
Rp3535
(dp3536
g13
I41
sg16
I27
sbag0
(g44
g2
Ntp3537
Rp3538
(dp3539
g13
I42
sg16
I27
sbag0
(g44
g2
Ntp3540
Rp3541
(dp3542
g13
I43
sg16
I27
sbag0
(g44
g2
Ntp3543
Rp3544
(dp3545
g13
I44
sg16
I27
sbag0
(g44
g2
Ntp3546
Rp3547
(dp3548
g13
I45
sg16
I27
sbag0
(g44
g2
Ntp3549
Rp3550
(dp3551
g13
I22
sg16
I20
sbag0
(g44
g2
Ntp3552
Rp3553
(dp3554
g13
I23
sg16
I20
sbag0
(g44
g2
Ntp3555
Rp3556
(dp3557
g13
I22
sg16
I21
sbag0
(g44
g2
Ntp3558
Rp3559
(dp3560
g13
I23
sg16
I21
sbag0
(g44
g2
Ntp3561
Rp3562
(dp3563
g13
I22
sg16
I22
sbag0
(g44
g2
Ntp3564
Rp3565
(dp3566
g13
I23
sg16
I22
sbag0
(g44
g2
Ntp3567
Rp3568
(dp3569
g13
I22
sg16
I23
sbag0
(g44
g2
Ntp3570
Rp3571
(dp3572
g13
I23
sg16
I23
sbag0
(g44
g2
Ntp3573
Rp3574
(dp3575
g13
I22
sg16
I24
sbag0
(g44
g2
Ntp3576
Rp3577
(dp3578
g13
I23
sg16
I24
sbag0
(g44
g2
Ntp3579
Rp3580
(dp3581
g13
I22
sg16
I25
sbag0
(g44
g2
Ntp3582
Rp3583
(dp3584
g13
I23
sg16
I25
sbag0
(g44
g2
Ntp3585
Rp3586
(dp3587
g13
I22
sg16
I26
sbag0
(g44
g2
Ntp3588
Rp3589
(dp3590
g13
I23
sg16
I26
sbag0
(g44
g2
Ntp3591
Rp3592
(dp3593
g13
I22
sg16
I27
sbag0
(g44
g2
Ntp3594
Rp3595
(dp3596
g13
I23
sg16
I27
sbag0
(g44
g2
Ntp3597
Rp3598
(dp3599
g13
I22
sg16
I28
sbag0
(g44
g2
Ntp3600
Rp3601
(dp3602
g13
I23
sg16
I28
sbag0
(g44
g2
Ntp3603
Rp3604
(dp3605
g13
I22
sg16
I29
sbag0
(g44
g2
Ntp3606
Rp3607
(dp3608
g13
I23
sg16
I29
sbag0
(g44
g2
Ntp3609
Rp3610
(dp3611
g13
I22
sg16
I30
sbag0
(g44
g2
Ntp3612
Rp3613
(dp3614
g13
I23
sg16
I30
sbag0
(g44
g2
Ntp3615
Rp3616
(dp3617
g13
I22
sg16
I31
sbag0
(g44
g2
Ntp3618
Rp3619
(dp3620
g13
I23
sg16
I31
sbag0
(g44
g2
Ntp3621
Rp3622
(dp3623
g13
I22
sg16
I32
sbag0
(g44
g2
Ntp3624
Rp3625
(dp3626
g13
I23
sg16
I32
sbag0
(g44
g2
Ntp3627
Rp3628
(dp3629
g13
I22
sg16
I33
sbag0
(g44
g2
Ntp3630
Rp3631
(dp3632
g13
I23
sg16
I33
sbag0
(g44
g2
Ntp3633
Rp3634
(dp3635
g13
I22
sg16
I34
sbag0
(g44
g2
Ntp3636
Rp3637
(dp3638
g13
I23
sg16
I34
sbag0
(g44
g2
Ntp3639
Rp3640
(dp3641
g13
I22
sg16
I35
sbag0
(g44
g2
Ntp3642
Rp3643
(dp3644
g13
I23
sg16
I35
sbag0
(g44
g2
Ntp3645
Rp3646
(dp3647
g13
I22
sg16
I36
sbag0
(g44
g2
Ntp3648
Rp3649
(dp3650
g13
I23
sg16
I36
sbag0
(g44
g2
Ntp3651
Rp3652
(dp3653
g13
I3
sg16
I23
sbag0
(g44
g2
Ntp3654
Rp3655
(dp3656
g13
I4
sg16
I23
sbag0
(g44
g2
Ntp3657
Rp3658
(dp3659
g13
I5
sg16
I23
sbag0
(g44
g2
Ntp3660
Rp3661
(dp3662
g13
I6
sg16
I23
sbag0
(g44
g2
Ntp3663
Rp3664
(dp3665
g13
I7
sg16
I23
sbag0
(g44
g2
Ntp3666
Rp3667
(dp3668
g13
I8
sg16
I23
sbag0
(g44
g2
Ntp3669
Rp3670
(dp3671
g13
I9
sg16
I23
sbag0
(g44
g2
Ntp3672
Rp3673
(dp3674
g13
I10
sg16
I23
sbag0
(g44
g2
Ntp3675
Rp3676
(dp3677
g13
I11
sg16
I23
sbag0
(g44
g2
Ntp3678
Rp3679
(dp3680
g13
I12
sg16
I23
sbag0
(g44
g2
Ntp3681
Rp3682
(dp3683
g13
I13
sg16
I23
sbag0
(g44
g2
Ntp3684
Rp3685
(dp3686
g13
I14
sg16
I23
sbag0
(g44
g2
Ntp3687
Rp3688
(dp3689
g13
I15
sg16
I23
sbag0
(g44
g2
Ntp3690
Rp3691
(dp3692
g13
I16
sg16
I23
sbag0
(g44
g2
Ntp3693
Rp3694
(dp3695
g13
I17
sg16
I23
sbag0
(g44
g2
Ntp3696
Rp3697
(dp3698
g13
I18
sg16
I23
sbag0
(g44
g2
Ntp3699
Rp3700
(dp3701
g13
I19
sg16
I23
sbag0
(g44
g2
Ntp3702
Rp3703
(dp3704
g13
I20
sg16
I23
sbag0
(g44
g2
Ntp3705
Rp3706
(dp3707
g13
I21
sg16
I23
sbag0
(g44
g2
Ntp3708
Rp3709
(dp3710
g13
I3
sg16
I24
sbag0
(g44
g2
Ntp3711
Rp3712
(dp3713
g13
I4
sg16
I24
sbag0
(g44
g2
Ntp3714
Rp3715
(dp3716
g13
I5
sg16
I24
sbag0
(g44
g2
Ntp3717
Rp3718
(dp3719
g13
I6
sg16
I24
sbag0
(g44
g2
Ntp3720
Rp3721
(dp3722
g13
I7
sg16
I24
sbag0
(g44
g2
Ntp3723
Rp3724
(dp3725
g13
I8
sg16
I24
sbag0
(g44
g2
Ntp3726
Rp3727
(dp3728
g13
I9
sg16
I24
sbag0
(g44
g2
Ntp3729
Rp3730
(dp3731
g13
I10
sg16
I24
sbag0
(g44
g2
Ntp3732
Rp3733
(dp3734
g13
I11
sg16
I24
sbag0
(g44
g2
Ntp3735
Rp3736
(dp3737
g13
I12
sg16
I24
sbag0
(g44
g2
Ntp3738
Rp3739
(dp3740
g13
I13
sg16
I24
sbag0
(g44
g2
Ntp3741
Rp3742
(dp3743
g13
I14
sg16
I24
sbag0
(g44
g2
Ntp3744
Rp3745
(dp3746
g13
I15
sg16
I24
sbag0
(g44
g2
Ntp3747
Rp3748
(dp3749
g13
I16
sg16
I24
sbag0
(g44
g2
Ntp3750
Rp3751
(dp3752
g13
I17
sg16
I24
sbag0
(g44
g2
Ntp3753
Rp3754
(dp3755
g13
I18
sg16
I24
sbag0
(g44
g2
Ntp3756
Rp3757
(dp3758
g13
I19
sg16
I24
sbag0
(g44
g2
Ntp3759
Rp3760
(dp3761
g13
I20
sg16
I24
sbag0
(g44
g2
Ntp3762
Rp3763
(dp3764
g13
I21
sg16
I24
sbag0
(g44
g2
Ntp3765
Rp3766
(dp3767
g13
I3
sg16
I25
sbag0
(g44
g2
Ntp3768
Rp3769
(dp3770
g13
I4
sg16
I25
sbag0
(g44
g2
Ntp3771
Rp3772
(dp3773
g13
I5
sg16
I25
sbag0
(g44
g2
Ntp3774
Rp3775
(dp3776
g13
I6
sg16
I25
sbag0
(g44
g2
Ntp3777
Rp3778
(dp3779
g13
I7
sg16
I25
sbag0
(g44
g2
Ntp3780
Rp3781
(dp3782
g13
I8
sg16
I25
sbag0
(g44
g2
Ntp3783
Rp3784
(dp3785
g13
I9
sg16
I25
sbag0
(g44
g2
Ntp3786
Rp3787
(dp3788
g13
I10
sg16
I25
sbag0
(g44
g2
Ntp3789
Rp3790
(dp3791
g13
I11
sg16
I25
sbag0
(g44
g2
Ntp3792
Rp3793
(dp3794
g13
I12
sg16
I25
sbag0
(g44
g2
Ntp3795
Rp3796
(dp3797
g13
I13
sg16
I25
sbag0
(g44
g2
Ntp3798
Rp3799
(dp3800
g13
I14
sg16
I25
sbag0
(g44
g2
Ntp3801
Rp3802
(dp3803
g13
I15
sg16
I25
sbag0
(g44
g2
Ntp3804
Rp3805
(dp3806
g13
I16
sg16
I25
sbag0
(g44
g2
Ntp3807
Rp3808
(dp3809
g13
I17
sg16
I25
sbag0
(g44
g2
Ntp3810
Rp3811
(dp3812
g13
I18
sg16
I25
sbag0
(g44
g2
Ntp3813
Rp3814
(dp3815
g13
I19
sg16
I25
sbag0
(g44
g2
Ntp3816
Rp3817
(dp3818
g13
I20
sg16
I25
sbag0
(g44
g2
Ntp3819
Rp3820
(dp3821
g13
I21
sg16
I25
sbag0
(g44
g2
Ntp3822
Rp3823
(dp3824
g13
I3
sg16
I26
sbag0
(g44
g2
Ntp3825
Rp3826
(dp3827
g13
I4
sg16
I26
sbag0
(g44
g2
Ntp3828
Rp3829
(dp3830
g13
I5
sg16
I26
sbag0
(g44
g2
Ntp3831
Rp3832
(dp3833
g13
I6
sg16
I26
sbag0
(g44
g2
Ntp3834
Rp3835
(dp3836
g13
I7
sg16
I26
sbag0
(g44
g2
Ntp3837
Rp3838
(dp3839
g13
I8
sg16
I26
sbag0
(g44
g2
Ntp3840
Rp3841
(dp3842
g13
I9
sg16
I26
sbag0
(g44
g2
Ntp3843
Rp3844
(dp3845
g13
I10
sg16
I26
sbag0
(g44
g2
Ntp3846
Rp3847
(dp3848
g13
I11
sg16
I26
sbag0
(g44
g2
Ntp3849
Rp3850
(dp3851
g13
I12
sg16
I26
sbag0
(g44
g2
Ntp3852
Rp3853
(dp3854
g13
I13
sg16
I26
sbag0
(g44
g2
Ntp3855
Rp3856
(dp3857
g13
I14
sg16
I26
sbag0
(g44
g2
Ntp3858
Rp3859
(dp3860
g13
I15
sg16
I26
sbag0
(g44
g2
Ntp3861
Rp3862
(dp3863
g13
I16
sg16
I26
sbag0
(g44
g2
Ntp3864
Rp3865
(dp3866
g13
I17
sg16
I26
sbag0
(g44
g2
Ntp3867
Rp3868
(dp3869
g13
I18
sg16
I26
sbag0
(g44
g2
Ntp3870
Rp3871
(dp3872
g13
I19
sg16
I26
sbag0
(g44
g2
Ntp3873
Rp3874
(dp3875
g13
I20
sg16
I26
sbag0
(g44
g2
Ntp3876
Rp3877
(dp3878
g13
I21
sg16
I26
sbag0
(g44
g2
Ntp3879
Rp3880
(dp3881
g13
I3
sg16
I27
sbag0
(g44
g2
Ntp3882
Rp3883
(dp3884
g13
I4
sg16
I27
sbag0
(g44
g2
Ntp3885
Rp3886
(dp3887
g13
I5
sg16
I27
sbag0
(g44
g2
Ntp3888
Rp3889
(dp3890
g13
I6
sg16
I27
sbag0
(g44
g2
Ntp3891
Rp3892
(dp3893
g13
I7
sg16
I27
sbag0
(g44
g2
Ntp3894
Rp3895
(dp3896
g13
I8
sg16
I27
sbag0
(g44
g2
Ntp3897
Rp3898
(dp3899
g13
I9
sg16
I27
sbag0
(g44
g2
Ntp3900
Rp3901
(dp3902
g13
I10
sg16
I27
sbag0
(g44
g2
Ntp3903
Rp3904
(dp3905
g13
I11
sg16
I27
sbag0
(g44
g2
Ntp3906
Rp3907
(dp3908
g13
I12
sg16
I27
sbag0
(g44
g2
Ntp3909
Rp3910
(dp3911
g13
I13
sg16
I27
sbag0
(g44
g2
Ntp3912
Rp3913
(dp3914
g13
I14
sg16
I27
sbag0
(g44
g2
Ntp3915
Rp3916
(dp3917
g13
I15
sg16
I27
sbag0
(g44
g2
Ntp3918
Rp3919
(dp3920
g13
I16
sg16
I27
sbag0
(g44
g2
Ntp3921
Rp3922
(dp3923
g13
I17
sg16
I27
sbag0
(g44
g2
Ntp3924
Rp3925
(dp3926
g13
I18
sg16
I27
sbag0
(g44
g2
Ntp3927
Rp3928
(dp3929
g13
I19
sg16
I27
sbag0
(g44
g2
Ntp3930
Rp3931
(dp3932
g13
I20
sg16
I27
sbag0
(g44
g2
Ntp3933
Rp3934
(dp3935
g13
I21
sg16
I27
sbag0
(g44
g2
Ntp3936
Rp3937
(dp3938
g13
I22
sg16
I42
sbag0
(g44
g2
Ntp3939
Rp3940
(dp3941
g13
I23
sg16
I42
sbag0
(g44
g2
Ntp3942
Rp3943
(dp3944
g13
I22
sg16
I43
sbag0
(g44
g2
Ntp3945
Rp3946
(dp3947
g13
I23
sg16
I43
sbag0
(g44
g2
Ntp3948
Rp3949
(dp3950
g13
I22
sg16
I44
sbag0
(g44
g2
Ntp3951
Rp3952
(dp3953
g13
I23
sg16
I44
sbag0
(g44
g2
Ntp3954
Rp3955
(dp3956
g13
I22
sg16
I45
sbag0
(g44
g2
Ntp3957
Rp3958
(dp3959
g13
I23
sg16
I45
sbag0
(g44
g2
Ntp3960
Rp3961
(dp3962
g13
I22
sg16
I46
sbag0
(g44
g2
Ntp3963
Rp3964
(dp3965
g13
I23
sg16
I46
sbag0
(g44
g2
Ntp3966
Rp3967
(dp3968
g13
I22
sg16
I47
sbag0
(g44
g2
Ntp3969
Rp3970
(dp3971
g13
I23
sg16
I47
sbag0
(g44
g2
Ntp3972
Rp3973
(dp3974
g13
I22
sg16
I48
sbag0
(g44
g2
Ntp3975
Rp3976
(dp3977
g13
I23
sg16
I48
sbag0
(g44
g2
Ntp3978
Rp3979
(dp3980
g13
I22
sg16
I49
sbag0
(g44
g2
Ntp3981
Rp3982
(dp3983
g13
I23
sg16
I49
sbag0
(g44
g2
Ntp3984
Rp3985
(dp3986
g13
I22
sg16
I50
sbag0
(g44
g2
Ntp3987
Rp3988
(dp3989
g13
I23
sg16
I50
sbag0
(g44
g2
Ntp3990
Rp3991
(dp3992
g13
I22
sg16
I59
sbag0
(g44
g2
Ntp3993
Rp3994
(dp3995
g13
I23
sg16
I59
sbag0
(g44
g2
Ntp3996
Rp3997
(dp3998
g13
I22
sg16
I60
sbag0
(g44
g2
Ntp3999
Rp4000
(dp4001
g13
I23
sg16
I60
sbag0
(g44
g2
Ntp4002
Rp4003
(dp4004
g13
I22
sg16
I61
sbag0
(g44
g2
Ntp4005
Rp4006
(dp4007
g13
I23
sg16
I61
sbag0
(g44
g2
Ntp4008
Rp4009
(dp4010
g13
I22
sg16
I62
sbag0
(g44
g2
Ntp4011
Rp4012
(dp4013
g13
I23
sg16
I62
sbag0
(g44
g2
Ntp4014
Rp4015
(dp4016
g13
I0
sg16
I51
sbag0
(g44
g2
Ntp4017
Rp4018
(dp4019
g13
I1
sg16
I51
sbag0
(g44
g2
Ntp4020
Rp4021
(dp4022
g13
I2
sg16
I51
sbag0
(g44
g2
Ntp4023
Rp4024
(dp4025
g13
I3
sg16
I51
sbag0
(g44
g2
Ntp4026
Rp4027
(dp4028
g13
I4
sg16
I51
sbag0
(g44
g2
Ntp4029
Rp4030
(dp4031
g13
I5
sg16
I51
sbag0
(g44
g2
Ntp4032
Rp4033
(dp4034
g13
I6
sg16
I51
sbag0
(g44
g2
Ntp4035
Rp4036
(dp4037
g13
I7
sg16
I51
sbag0
(g44
g2
Ntp4038
Rp4039
(dp4040
g13
I8
sg16
I51
sbag0
(g44
g2
Ntp4041
Rp4042
(dp4043
g13
I9
sg16
I51
sbag0
(g44
g2
Ntp4044
Rp4045
(dp4046
g13
I10
sg16
I51
sbag0
(g44
g2
Ntp4047
Rp4048
(dp4049
g13
I11
sg16
I51
sbag0
(g44
g2
Ntp4050
Rp4051
(dp4052
g13
I12
sg16
I51
sbag0
(g44
g2
Ntp4053
Rp4054
(dp4055
g13
I13
sg16
I51
sbag0
(g44
g2
Ntp4056
Rp4057
(dp4058
g13
I14
sg16
I51
sbag0
(g44
g2
Ntp4059
Rp4060
(dp4061
g13
I15
sg16
I51
sbag0
(g44
g2
Ntp4062
Rp4063
(dp4064
g13
I16
sg16
I51
sbag0
(g44
g2
Ntp4065
Rp4066
(dp4067
g13
I17
sg16
I51
sbag0
(g44
g2
Ntp4068
Rp4069
(dp4070
g13
I18
sg16
I51
sbag0
(g44
g2
Ntp4071
Rp4072
(dp4073
g13
I19
sg16
I51
sbag0
(g44
g2
Ntp4074
Rp4075
(dp4076
g13
I20
sg16
I51
sbag0
(g44
g2
Ntp4077
Rp4078
(dp4079
g13
I21
sg16
I51
sbag0
(g44
g2
Ntp4080
Rp4081
(dp4082
g13
I22
sg16
I51
sbag0
(g44
g2
Ntp4083
Rp4084
(dp4085
g13
I23
sg16
I51
sbag0
(g44
g2
Ntp4086
Rp4087
(dp4088
g13
I0
sg16
I52
sbag0
(g44
g2
Ntp4089
Rp4090
(dp4091
g13
I1
sg16
I52
sbag0
(g44
g2
Ntp4092
Rp4093
(dp4094
g13
I2
sg16
I52
sbag0
(g44
g2
Ntp4095
Rp4096
(dp4097
g13
I3
sg16
I52
sbag0
(g44
g2
Ntp4098
Rp4099
(dp4100
g13
I4
sg16
I52
sbag0
(g44
g2
Ntp4101
Rp4102
(dp4103
g13
I5
sg16
I52
sbag0
(g44
g2
Ntp4104
Rp4105
(dp4106
g13
I6
sg16
I52
sbag0
(g44
g2
Ntp4107
Rp4108
(dp4109
g13
I7
sg16
I52
sbag0
(g44
g2
Ntp4110
Rp4111
(dp4112
g13
I8
sg16
I52
sbag0
(g44
g2
Ntp4113
Rp4114
(dp4115
g13
I9
sg16
I52
sbag0
(g44
g2
Ntp4116
Rp4117
(dp4118
g13
I10
sg16
I52
sbag0
(g44
g2
Ntp4119
Rp4120
(dp4121
g13
I11
sg16
I52
sbag0
(g44
g2
Ntp4122
Rp4123
(dp4124
g13
I12
sg16
I52
sbag0
(g44
g2
Ntp4125
Rp4126
(dp4127
g13
I13
sg16
I52
sbag0
(g44
g2
Ntp4128
Rp4129
(dp4130
g13
I14
sg16
I52
sbag0
(g44
g2
Ntp4131
Rp4132
(dp4133
g13
I15
sg16
I52
sbag0
(g44
g2
Ntp4134
Rp4135
(dp4136
g13
I16
sg16
I52
sbag0
(g44
g2
Ntp4137
Rp4138
(dp4139
g13
I17
sg16
I52
sbag0
(g44
g2
Ntp4140
Rp4141
(dp4142
g13
I18
sg16
I52
sbag0
(g44
g2
Ntp4143
Rp4144
(dp4145
g13
I19
sg16
I52
sbag0
(g44
g2
Ntp4146
Rp4147
(dp4148
g13
I20
sg16
I52
sbag0
(g44
g2
Ntp4149
Rp4150
(dp4151
g13
I21
sg16
I52
sbag0
(g44
g2
Ntp4152
Rp4153
(dp4154
g13
I22
sg16
I52
sbag0
(g44
g2
Ntp4155
Rp4156
(dp4157
g13
I23
sg16
I52
sbag0
(g44
g2
Ntp4158
Rp4159
(dp4160
g13
I0
sg16
I53
sbag0
(g44
g2
Ntp4161
Rp4162
(dp4163
g13
I1
sg16
I53
sbag0
(g44
g2
Ntp4164
Rp4165
(dp4166
g13
I2
sg16
I53
sbag0
(g44
g2
Ntp4167
Rp4168
(dp4169
g13
I3
sg16
I53
sbag0
(g44
g2
Ntp4170
Rp4171
(dp4172
g13
I4
sg16
I53
sbag0
(g44
g2
Ntp4173
Rp4174
(dp4175
g13
I5
sg16
I53
sbag0
(g44
g2
Ntp4176
Rp4177
(dp4178
g13
I6
sg16
I53
sbag0
(g44
g2
Ntp4179
Rp4180
(dp4181
g13
I7
sg16
I53
sbag0
(g44
g2
Ntp4182
Rp4183
(dp4184
g13
I8
sg16
I53
sbag0
(g44
g2
Ntp4185
Rp4186
(dp4187
g13
I9
sg16
I53
sbag0
(g44
g2
Ntp4188
Rp4189
(dp4190
g13
I10
sg16
I53
sbag0
(g44
g2
Ntp4191
Rp4192
(dp4193
g13
I11
sg16
I53
sbag0
(g44
g2
Ntp4194
Rp4195
(dp4196
g13
I12
sg16
I53
sbag0
(g44
g2
Ntp4197
Rp4198
(dp4199
g13
I13
sg16
I53
sbag0
(g44
g2
Ntp4200
Rp4201
(dp4202
g13
I14
sg16
I53
sbag0
(g44
g2
Ntp4203
Rp4204
(dp4205
g13
I15
sg16
I53
sbag0
(g44
g2
Ntp4206
Rp4207
(dp4208
g13
I16
sg16
I53
sbag0
(g44
g2
Ntp4209
Rp4210
(dp4211
g13
I17
sg16
I53
sbag0
(g44
g2
Ntp4212
Rp4213
(dp4214
g13
I18
sg16
I53
sbag0
(g44
g2
Ntp4215
Rp4216
(dp4217
g13
I19
sg16
I53
sbag0
(g44
g2
Ntp4218
Rp4219
(dp4220
g13
I20
sg16
I53
sbag0
(g44
g2
Ntp4221
Rp4222
(dp4223
g13
I21
sg16
I53
sbag0
(g44
g2
Ntp4224
Rp4225
(dp4226
g13
I22
sg16
I53
sbag0
(g44
g2
Ntp4227
Rp4228
(dp4229
g13
I23
sg16
I53
sbag0
(g44
g2
Ntp4230
Rp4231
(dp4232
g13
I0
sg16
I54
sbag0
(g44
g2
Ntp4233
Rp4234
(dp4235
g13
I1
sg16
I54
sbag0
(g44
g2
Ntp4236
Rp4237
(dp4238
g13
I2
sg16
I54
sbag0
(g44
g2
Ntp4239
Rp4240
(dp4241
g13
I3
sg16
I54
sbag0
(g44
g2
Ntp4242
Rp4243
(dp4244
g13
I4
sg16
I54
sbag0
(g44
g2
Ntp4245
Rp4246
(dp4247
g13
I5
sg16
I54
sbag0
(g44
g2
Ntp4248
Rp4249
(dp4250
g13
I6
sg16
I54
sbag0
(g44
g2
Ntp4251
Rp4252
(dp4253
g13
I7
sg16
I54
sbag0
(g44
g2
Ntp4254
Rp4255
(dp4256
g13
I8
sg16
I54
sbag0
(g44
g2
Ntp4257
Rp4258
(dp4259
g13
I9
sg16
I54
sbag0
(g44
g2
Ntp4260
Rp4261
(dp4262
g13
I10
sg16
I54
sbag0
(g44
g2
Ntp4263
Rp4264
(dp4265
g13
I11
sg16
I54
sbag0
(g44
g2
Ntp4266
Rp4267
(dp4268
g13
I12
sg16
I54
sbag0
(g44
g2
Ntp4269
Rp4270
(dp4271
g13
I13
sg16
I54
sbag0
(g44
g2
Ntp4272
Rp4273
(dp4274
g13
I14
sg16
I54
sbag0
(g44
g2
Ntp4275
Rp4276
(dp4277
g13
I15
sg16
I54
sbag0
(g44
g2
Ntp4278
Rp4279
(dp4280
g13
I16
sg16
I54
sbag0
(g44
g2
Ntp4281
Rp4282
(dp4283
g13
I17
sg16
I54
sbag0
(g44
g2
Ntp4284
Rp4285
(dp4286
g13
I18
sg16
I54
sbag0
(g44
g2
Ntp4287
Rp4288
(dp4289
g13
I19
sg16
I54
sbag0
(g44
g2
Ntp4290
Rp4291
(dp4292
g13
I20
sg16
I54
sbag0
(g44
g2
Ntp4293
Rp4294
(dp4295
g13
I21
sg16
I54
sbag0
(g44
g2
Ntp4296
Rp4297
(dp4298
g13
I22
sg16
I54
sbag0
(g44
g2
Ntp4299
Rp4300
(dp4301
g13
I23
sg16
I54
sbag0
(g44
g2
Ntp4302
Rp4303
(dp4304
g13
I0
sg16
I55
sbag0
(g44
g2
Ntp4305
Rp4306
(dp4307
g13
I1
sg16
I55
sbag0
(g44
g2
Ntp4308
Rp4309
(dp4310
g13
I2
sg16
I55
sbag0
(g44
g2
Ntp4311
Rp4312
(dp4313
g13
I3
sg16
I55
sbag0
(g44
g2
Ntp4314
Rp4315
(dp4316
g13
I4
sg16
I55
sbag0
(g44
g2
Ntp4317
Rp4318
(dp4319
g13
I5
sg16
I55
sbag0
(g44
g2
Ntp4320
Rp4321
(dp4322
g13
I6
sg16
I55
sbag0
(g44
g2
Ntp4323
Rp4324
(dp4325
g13
I7
sg16
I55
sbag0
(g44
g2
Ntp4326
Rp4327
(dp4328
g13
I8
sg16
I55
sbag0
(g44
g2
Ntp4329
Rp4330
(dp4331
g13
I9
sg16
I55
sbag0
(g44
g2
Ntp4332
Rp4333
(dp4334
g13
I10
sg16
I55
sbag0
(g44
g2
Ntp4335
Rp4336
(dp4337
g13
I11
sg16
I55
sbag0
(g44
g2
Ntp4338
Rp4339
(dp4340
g13
I12
sg16
I55
sbag0
(g44
g2
Ntp4341
Rp4342
(dp4343
g13
I13
sg16
I55
sbag0
(g44
g2
Ntp4344
Rp4345
(dp4346
g13
I14
sg16
I55
sbag0
(g44
g2
Ntp4347
Rp4348
(dp4349
g13
I15
sg16
I55
sbag0
(g44
g2
Ntp4350
Rp4351
(dp4352
g13
I16
sg16
I55
sbag0
(g44
g2
Ntp4353
Rp4354
(dp4355
g13
I17
sg16
I55
sbag0
(g44
g2
Ntp4356
Rp4357
(dp4358
g13
I18
sg16
I55
sbag0
(g44
g2
Ntp4359
Rp4360
(dp4361
g13
I19
sg16
I55
sbag0
(g44
g2
Ntp4362
Rp4363
(dp4364
g13
I20
sg16
I55
sbag0
(g44
g2
Ntp4365
Rp4366
(dp4367
g13
I21
sg16
I55
sbag0
(g44
g2
Ntp4368
Rp4369
(dp4370
g13
I22
sg16
I55
sbag0
(g44
g2
Ntp4371
Rp4372
(dp4373
g13
I23
sg16
I55
sbag0
(g44
g2
Ntp4374
Rp4375
(dp4376
g13
I0
sg16
I56
sbag0
(g44
g2
Ntp4377
Rp4378
(dp4379
g13
I1
sg16
I56
sbag0
(g44
g2
Ntp4380
Rp4381
(dp4382
g13
I2
sg16
I56
sbag0
(g44
g2
Ntp4383
Rp4384
(dp4385
g13
I3
sg16
I56
sbag0
(g44
g2
Ntp4386
Rp4387
(dp4388
g13
I4
sg16
I56
sbag0
(g44
g2
Ntp4389
Rp4390
(dp4391
g13
I5
sg16
I56
sbag0
(g44
g2
Ntp4392
Rp4393
(dp4394
g13
I6
sg16
I56
sbag0
(g44
g2
Ntp4395
Rp4396
(dp4397
g13
I7
sg16
I56
sbag0
(g44
g2
Ntp4398
Rp4399
(dp4400
g13
I8
sg16
I56
sbag0
(g44
g2
Ntp4401
Rp4402
(dp4403
g13
I9
sg16
I56
sbag0
(g44
g2
Ntp4404
Rp4405
(dp4406
g13
I10
sg16
I56
sbag0
(g44
g2
Ntp4407
Rp4408
(dp4409
g13
I11
sg16
I56
sbag0
(g44
g2
Ntp4410
Rp4411
(dp4412
g13
I12
sg16
I56
sbag0
(g44
g2
Ntp4413
Rp4414
(dp4415
g13
I13
sg16
I56
sbag0
(g44
g2
Ntp4416
Rp4417
(dp4418
g13
I14
sg16
I56
sbag0
(g44
g2
Ntp4419
Rp4420
(dp4421
g13
I15
sg16
I56
sbag0
(g44
g2
Ntp4422
Rp4423
(dp4424
g13
I16
sg16
I56
sbag0
(g44
g2
Ntp4425
Rp4426
(dp4427
g13
I17
sg16
I56
sbag0
(g44
g2
Ntp4428
Rp4429
(dp4430
g13
I18
sg16
I56
sbag0
(g44
g2
Ntp4431
Rp4432
(dp4433
g13
I19
sg16
I56
sbag0
(g44
g2
Ntp4434
Rp4435
(dp4436
g13
I20
sg16
I56
sbag0
(g44
g2
Ntp4437
Rp4438
(dp4439
g13
I21
sg16
I56
sbag0
(g44
g2
Ntp4440
Rp4441
(dp4442
g13
I22
sg16
I56
sbag0
(g44
g2
Ntp4443
Rp4444
(dp4445
g13
I23
sg16
I56
sbag0
(g44
g2
Ntp4446
Rp4447
(dp4448
g13
I0
sg16
I57
sbag0
(g44
g2
Ntp4449
Rp4450
(dp4451
g13
I1
sg16
I57
sbag0
(g44
g2
Ntp4452
Rp4453
(dp4454
g13
I2
sg16
I57
sbag0
(g44
g2
Ntp4455
Rp4456
(dp4457
g13
I3
sg16
I57
sbag0
(g44
g2
Ntp4458
Rp4459
(dp4460
g13
I4
sg16
I57
sbag0
(g44
g2
Ntp4461
Rp4462
(dp4463
g13
I5
sg16
I57
sbag0
(g44
g2
Ntp4464
Rp4465
(dp4466
g13
I6
sg16
I57
sbag0
(g44
g2
Ntp4467
Rp4468
(dp4469
g13
I7
sg16
I57
sbag0
(g44
g2
Ntp4470
Rp4471
(dp4472
g13
I8
sg16
I57
sbag0
(g44
g2
Ntp4473
Rp4474
(dp4475
g13
I9
sg16
I57
sbag0
(g44
g2
Ntp4476
Rp4477
(dp4478
g13
I10
sg16
I57
sbag0
(g44
g2
Ntp4479
Rp4480
(dp4481
g13
I11
sg16
I57
sbag0
(g44
g2
Ntp4482
Rp4483
(dp4484
g13
I12
sg16
I57
sbag0
(g44
g2
Ntp4485
Rp4486
(dp4487
g13
I13
sg16
I57
sbag0
(g44
g2
Ntp4488
Rp4489
(dp4490
g13
I14
sg16
I57
sbag0
(g44
g2
Ntp4491
Rp4492
(dp4493
g13
I15
sg16
I57
sbag0
(g44
g2
Ntp4494
Rp4495
(dp4496
g13
I16
sg16
I57
sbag0
(g44
g2
Ntp4497
Rp4498
(dp4499
g13
I17
sg16
I57
sbag0
(g44
g2
Ntp4500
Rp4501
(dp4502
g13
I18
sg16
I57
sbag0
(g44
g2
Ntp4503
Rp4504
(dp4505
g13
I19
sg16
I57
sbag0
(g44
g2
Ntp4506
Rp4507
(dp4508
g13
I20
sg16
I57
sbag0
(g44
g2
Ntp4509
Rp4510
(dp4511
g13
I21
sg16
I57
sbag0
(g44
g2
Ntp4512
Rp4513
(dp4514
g13
I22
sg16
I57
sbag0
(g44
g2
Ntp4515
Rp4516
(dp4517
g13
I23
sg16
I57
sbag0
(g44
g2
Ntp4518
Rp4519
(dp4520
g13
I0
sg16
I58
sbag0
(g44
g2
Ntp4521
Rp4522
(dp4523
g13
I1
sg16
I58
sbag0
(g44
g2
Ntp4524
Rp4525
(dp4526
g13
I2
sg16
I58
sbag0
(g44
g2
Ntp4527
Rp4528
(dp4529
g13
I3
sg16
I58
sbag0
(g44
g2
Ntp4530
Rp4531
(dp4532
g13
I4
sg16
I58
sbag0
(g44
g2
Ntp4533
Rp4534
(dp4535
g13
I5
sg16
I58
sbag0
(g44
g2
Ntp4536
Rp4537
(dp4538
g13
I6
sg16
I58
sbag0
(g44
g2
Ntp4539
Rp4540
(dp4541
g13
I7
sg16
I58
sbag0
(g44
g2
Ntp4542
Rp4543
(dp4544
g13
I8
sg16
I58
sbag0
(g44
g2
Ntp4545
Rp4546
(dp4547
g13
I9
sg16
I58
sbag0
(g44
g2
Ntp4548
Rp4549
(dp4550
g13
I10
sg16
I58
sbag0
(g44
g2
Ntp4551
Rp4552
(dp4553
g13
I11
sg16
I58
sbag0
(g44
g2
Ntp4554
Rp4555
(dp4556
g13
I12
sg16
I58
sbag0
(g44
g2
Ntp4557
Rp4558
(dp4559
g13
I13
sg16
I58
sbag0
(g44
g2
Ntp4560
Rp4561
(dp4562
g13
I14
sg16
I58
sbag0
(g44
g2
Ntp4563
Rp4564
(dp4565
g13
I15
sg16
I58
sbag0
(g44
g2
Ntp4566
Rp4567
(dp4568
g13
I16
sg16
I58
sbag0
(g44
g2
Ntp4569
Rp4570
(dp4571
g13
I17
sg16
I58
sbag0
(g44
g2
Ntp4572
Rp4573
(dp4574
g13
I18
sg16
I58
sbag0
(g44
g2
Ntp4575
Rp4576
(dp4577
g13
I19
sg16
I58
sbag0
(g44
g2
Ntp4578
Rp4579
(dp4580
g13
I20
sg16
I58
sbag0
(g44
g2
Ntp4581
Rp4582
(dp4583
g13
I21
sg16
I58
sbag0
(g44
g2
Ntp4584
Rp4585
(dp4586
g13
I22
sg16
I58
sbag0
(g44
g2
Ntp4587
Rp4588
(dp4589
g13
I23
sg16
I58
sbag0
(g44
g2
Ntp4590
Rp4591
(dp4592
g13
I27
sg16
I42
sbag0
(g44
g2
Ntp4593
Rp4594
(dp4595
g13
I28
sg16
I42
sbag0
(g44
g2
Ntp4596
Rp4597
(dp4598
g13
I27
sg16
I43
sbag0
(g44
g2
Ntp4599
Rp4600
(dp4601
g13
I28
sg16
I43
sbag0
(g44
g2
Ntp4602
Rp4603
(dp4604
g13
I27
sg16
I44
sbag0
(g44
g2
Ntp4605
Rp4606
(dp4607
g13
I28
sg16
I44
sbag0
(g44
g2
Ntp4608
Rp4609
(dp4610
g13
I27
sg16
I45
sbag0
(g44
g2
Ntp4611
Rp4612
(dp4613
g13
I28
sg16
I45
sbag0
(g44
g2
Ntp4614
Rp4615
(dp4616
g13
I27
sg16
I46
sbag0
(g44
g2
Ntp4617
Rp4618
(dp4619
g13
I28
sg16
I46
sbag0
(g44
g2
Ntp4620
Rp4621
(dp4622
g13
I27
sg16
I47
sbag0
(g44
g2
Ntp4623
Rp4624
(dp4625
g13
I28
sg16
I47
sbag0
(g44
g2
Ntp4626
Rp4627
(dp4628
g13
I27
sg16
I48
sbag0
(g44
g2
Ntp4629
Rp4630
(dp4631
g13
I28
sg16
I48
sbag0
(g44
g2
Ntp4632
Rp4633
(dp4634
g13
I27
sg16
I49
sbag0
(g44
g2
Ntp4635
Rp4636
(dp4637
g13
I28
sg16
I49
sbag0
(g44
g2
Ntp4638
Rp4639
(dp4640
g13
I27
sg16
I50
sbag0
(g44
g2
Ntp4641
Rp4642
(dp4643
g13
I28
sg16
I50
sbag0
(g44
g2
Ntp4644
Rp4645
(dp4646
g13
I27
sg16
I51
sbag0
(g44
g2
Ntp4647
Rp4648
(dp4649
g13
I28
sg16
I51
sbag0
(g44
g2
Ntp4650
Rp4651
(dp4652
g13
I27
sg16
I52
sbag0
(g44
g2
Ntp4653
Rp4654
(dp4655
g13
I28
sg16
I52
sbag0
(g44
g2
Ntp4656
Rp4657
(dp4658
g13
I27
sg16
I53
sbag0
(g44
g2
Ntp4659
Rp4660
(dp4661
g13
I28
sg16
I53
sbag0
(g44
g2
Ntp4662
Rp4663
(dp4664
g13
I27
sg16
I54
sbag0
(g44
g2
Ntp4665
Rp4666
(dp4667
g13
I28
sg16
I54
sbag0
(g44
g2
Ntp4668
Rp4669
(dp4670
g13
I27
sg16
I55
sbag0
(g44
g2
Ntp4671
Rp4672
(dp4673
g13
I28
sg16
I55
sbag0
(g44
g2
Ntp4674
Rp4675
(dp4676
g13
I27
sg16
I56
sbag0
(g44
g2
Ntp4677
Rp4678
(dp4679
g13
I28
sg16
I56
sbag0
(g44
g2
Ntp4680
Rp4681
(dp4682
g13
I27
sg16
I57
sbag0
(g44
g2
Ntp4683
Rp4684
(dp4685
g13
I28
sg16
I57
sbag0
(g44
g2
Ntp4686
Rp4687
(dp4688
g13
I27
sg16
I58
sbag0
(g44
g2
Ntp4689
Rp4690
(dp4691
g13
I28
sg16
I58
sbag0
(g44
g2
Ntp4692
Rp4693
(dp4694
g13
I27
sg16
I59
sbag0
(g44
g2
Ntp4695
Rp4696
(dp4697
g13
I28
sg16
I59
sbag0
(g44
g2
Ntp4698
Rp4699
(dp4700
g13
I27
sg16
I60
sbag0
(g44
g2
Ntp4701
Rp4702
(dp4703
g13
I28
sg16
I60
sbag0
(g44
g2
Ntp4704
Rp4705
(dp4706
g13
I27
sg16
I61
sbag0
(g44
g2
Ntp4707
Rp4708
(dp4709
g13
I28
sg16
I61
sbag0
(g44
g2
Ntp4710
Rp4711
(dp4712
g13
I27
sg16
I62
sbag0
(g44
g2
Ntp4713
Rp4714
(dp4715
g13
I28
sg16
I62
sbag0
(g44
g2
Ntp4716
Rp4717
(dp4718
g13
I29
sg16
I51
sbag0
(g44
g2
Ntp4719
Rp4720
(dp4721
g13
I30
sg16
I51
sbag0
(g44
g2
Ntp4722
Rp4723
(dp4724
g13
I31
sg16
I51
sbag0
(g44
g2
Ntp4725
Rp4726
(dp4727
g13
I32
sg16
I51
sbag0
(g44
g2
Ntp4728
Rp4729
(dp4730
g13
I33
sg16
I51
sbag0
(g44
g2
Ntp4731
Rp4732
(dp4733
g13
I34
sg16
I51
sbag0
(g44
g2
Ntp4734
Rp4735
(dp4736
g13
I35
sg16
I51
sbag0
(g44
g2
Ntp4737
Rp4738
(dp4739
g13
I36
sg16
I51
sbag0
(g44
g2
Ntp4740
Rp4741
(dp4742
g13
I37
sg16
I51
sbag0
(g44
g2
Ntp4743
Rp4744
(dp4745
g13
I38
sg16
I51
sbag0
(g44
g2
Ntp4746
Rp4747
(dp4748
g13
I39
sg16
I51
sbag0
(g44
g2
Ntp4749
Rp4750
(dp4751
g13
I40
sg16
I51
sbag0
(g44
g2
Ntp4752
Rp4753
(dp4754
g13
I41
sg16
I51
sbag0
(g44
g2
Ntp4755
Rp4756
(dp4757
g13
I42
sg16
I51
sbag0
(g44
g2
Ntp4758
Rp4759
(dp4760
g13
I43
sg16
I51
sbag0
(g44
g2
Ntp4761
Rp4762
(dp4763
g13
I44
sg16
I51
sbag0
(g44
g2
Ntp4764
Rp4765
(dp4766
g13
I45
sg16
I51
sbag0
(g44
g2
Ntp4767
Rp4768
(dp4769
g13
I46
sg16
I51
sbag0
(g44
g2
Ntp4770
Rp4771
(dp4772
g13
I47
sg16
I51
sbag0
(g44
g2
Ntp4773
Rp4774
(dp4775
g13
I48
sg16
I51
sbag0
(g44
g2
Ntp4776
Rp4777
(dp4778
g13
I49
sg16
I51
sbag0
(g44
g2
Ntp4779
Rp4780
(dp4781
g13
I29
sg16
I52
sbag0
(g44
g2
Ntp4782
Rp4783
(dp4784
g13
I30
sg16
I52
sbag0
(g44
g2
Ntp4785
Rp4786
(dp4787
g13
I31
sg16
I52
sbag0
(g44
g2
Ntp4788
Rp4789
(dp4790
g13
I32
sg16
I52
sbag0
(g44
g2
Ntp4791
Rp4792
(dp4793
g13
I33
sg16
I52
sbag0
(g44
g2
Ntp4794
Rp4795
(dp4796
g13
I34
sg16
I52
sbag0
(g44
g2
Ntp4797
Rp4798
(dp4799
g13
I35
sg16
I52
sbag0
(g44
g2
Ntp4800
Rp4801
(dp4802
g13
I36
sg16
I52
sbag0
(g44
g2
Ntp4803
Rp4804
(dp4805
g13
I37
sg16
I52
sbag0
(g44
g2
Ntp4806
Rp4807
(dp4808
g13
I38
sg16
I52
sbag0
(g44
g2
Ntp4809
Rp4810
(dp4811
g13
I39
sg16
I52
sbag0
(g44
g2
Ntp4812
Rp4813
(dp4814
g13
I40
sg16
I52
sbag0
(g44
g2
Ntp4815
Rp4816
(dp4817
g13
I41
sg16
I52
sbag0
(g44
g2
Ntp4818
Rp4819
(dp4820
g13
I42
sg16
I52
sbag0
(g44
g2
Ntp4821
Rp4822
(dp4823
g13
I43
sg16
I52
sbag0
(g44
g2
Ntp4824
Rp4825
(dp4826
g13
I44
sg16
I52
sbag0
(g44
g2
Ntp4827
Rp4828
(dp4829
g13
I45
sg16
I52
sbag0
(g44
g2
Ntp4830
Rp4831
(dp4832
g13
I46
sg16
I52
sbag0
(g44
g2
Ntp4833
Rp4834
(dp4835
g13
I47
sg16
I52
sbag0
(g44
g2
Ntp4836
Rp4837
(dp4838
g13
I48
sg16
I52
sbag0
(g44
g2
Ntp4839
Rp4840
(dp4841
g13
I49
sg16
I52
sbag0
(g44
g2
Ntp4842
Rp4843
(dp4844
g13
I29
sg16
I53
sbag0
(g44
g2
Ntp4845
Rp4846
(dp4847
g13
I30
sg16
I53
sbag0
(g44
g2
Ntp4848
Rp4849
(dp4850
g13
I31
sg16
I53
sbag0
(g44
g2
Ntp4851
Rp4852
(dp4853
g13
I32
sg16
I53
sbag0
(g44
g2
Ntp4854
Rp4855
(dp4856
g13
I33
sg16
I53
sbag0
(g44
g2
Ntp4857
Rp4858
(dp4859
g13
I34
sg16
I53
sbag0
(g44
g2
Ntp4860
Rp4861
(dp4862
g13
I35
sg16
I53
sbag0
(g44
g2
Ntp4863
Rp4864
(dp4865
g13
I36
sg16
I53
sbag0
(g44
g2
Ntp4866
Rp4867
(dp4868
g13
I37
sg16
I53
sbag0
(g44
g2
Ntp4869
Rp4870
(dp4871
g13
I38
sg16
I53
sbag0
(g44
g2
Ntp4872
Rp4873
(dp4874
g13
I39
sg16
I53
sbag0
(g44
g2
Ntp4875
Rp4876
(dp4877
g13
I40
sg16
I53
sbag0
(g44
g2
Ntp4878
Rp4879
(dp4880
g13
I41
sg16
I53
sbag0
(g44
g2
Ntp4881
Rp4882
(dp4883
g13
I42
sg16
I53
sbag0
(g44
g2
Ntp4884
Rp4885
(dp4886
g13
I43
sg16
I53
sbag0
(g44
g2
Ntp4887
Rp4888
(dp4889
g13
I44
sg16
I53
sbag0
(g44
g2
Ntp4890
Rp4891
(dp4892
g13
I45
sg16
I53
sbag0
(g44
g2
Ntp4893
Rp4894
(dp4895
g13
I46
sg16
I53
sbag0
(g44
g2
Ntp4896
Rp4897
(dp4898
g13
I47
sg16
I53
sbag0
(g44
g2
Ntp4899
Rp4900
(dp4901
g13
I48
sg16
I53
sbag0
(g44
g2
Ntp4902
Rp4903
(dp4904
g13
I49
sg16
I53
sbag0
(g44
g2
Ntp4905
Rp4906
(dp4907
g13
I29
sg16
I54
sbag0
(g44
g2
Ntp4908
Rp4909
(dp4910
g13
I30
sg16
I54
sbag0
(g44
g2
Ntp4911
Rp4912
(dp4913
g13
I31
sg16
I54
sbag0
(g44
g2
Ntp4914
Rp4915
(dp4916
g13
I32
sg16
I54
sbag0
(g44
g2
Ntp4917
Rp4918
(dp4919
g13
I33
sg16
I54
sbag0
(g44
g2
Ntp4920
Rp4921
(dp4922
g13
I34
sg16
I54
sbag0
(g44
g2
Ntp4923
Rp4924
(dp4925
g13
I35
sg16
I54
sbag0
(g44
g2
Ntp4926
Rp4927
(dp4928
g13
I36
sg16
I54
sbag0
(g44
g2
Ntp4929
Rp4930
(dp4931
g13
I37
sg16
I54
sbag0
(g44
g2
Ntp4932
Rp4933
(dp4934
g13
I38
sg16
I54
sbag0
(g44
g2
Ntp4935
Rp4936
(dp4937
g13
I39
sg16
I54
sbag0
(g44
g2
Ntp4938
Rp4939
(dp4940
g13
I40
sg16
I54
sbag0
(g44
g2
Ntp4941
Rp4942
(dp4943
g13
I41
sg16
I54
sbag0
(g44
g2
Ntp4944
Rp4945
(dp4946
g13
I42
sg16
I54
sbag0
(g44
g2
Ntp4947
Rp4948
(dp4949
g13
I43
sg16
I54
sbag0
(g44
g2
Ntp4950
Rp4951
(dp4952
g13
I44
sg16
I54
sbag0
(g44
g2
Ntp4953
Rp4954
(dp4955
g13
I45
sg16
I54
sbag0
(g44
g2
Ntp4956
Rp4957
(dp4958
g13
I46
sg16
I54
sbag0
(g44
g2
Ntp4959
Rp4960
(dp4961
g13
I47
sg16
I54
sbag0
(g44
g2
Ntp4962
Rp4963
(dp4964
g13
I48
sg16
I54
sbag0
(g44
g2
Ntp4965
Rp4966
(dp4967
g13
I49
sg16
I54
sbag0
(g44
g2
Ntp4968
Rp4969
(dp4970
g13
I29
sg16
I55
sbag0
(g44
g2
Ntp4971
Rp4972
(dp4973
g13
I30
sg16
I55
sbag0
(g44
g2
Ntp4974
Rp4975
(dp4976
g13
I31
sg16
I55
sbag0
(g44
g2
Ntp4977
Rp4978
(dp4979
g13
I32
sg16
I55
sbag0
(g44
g2
Ntp4980
Rp4981
(dp4982
g13
I33
sg16
I55
sbag0
(g44
g2
Ntp4983
Rp4984
(dp4985
g13
I34
sg16
I55
sbag0
(g44
g2
Ntp4986
Rp4987
(dp4988
g13
I35
sg16
I55
sbag0
(g44
g2
Ntp4989
Rp4990
(dp4991
g13
I36
sg16
I55
sbag0
(g44
g2
Ntp4992
Rp4993
(dp4994
g13
I37
sg16
I55
sbag0
(g44
g2
Ntp4995
Rp4996
(dp4997
g13
I38
sg16
I55
sbag0
(g44
g2
Ntp4998
Rp4999
(dp5000
g13
I39
sg16
I55
sbag0
(g44
g2
Ntp5001
Rp5002
(dp5003
g13
I40
sg16
I55
sbag0
(g44
g2
Ntp5004
Rp5005
(dp5006
g13
I41
sg16
I55
sbag0
(g44
g2
Ntp5007
Rp5008
(dp5009
g13
I42
sg16
I55
sbag0
(g44
g2
Ntp5010
Rp5011
(dp5012
g13
I43
sg16
I55
sbag0
(g44
g2
Ntp5013
Rp5014
(dp5015
g13
I44
sg16
I55
sbag0
(g44
g2
Ntp5016
Rp5017
(dp5018
g13
I45
sg16
I55
sbag0
(g44
g2
Ntp5019
Rp5020
(dp5021
g13
I46
sg16
I55
sbag0
(g44
g2
Ntp5022
Rp5023
(dp5024
g13
I47
sg16
I55
sbag0
(g44
g2
Ntp5025
Rp5026
(dp5027
g13
I48
sg16
I55
sbag0
(g44
g2
Ntp5028
Rp5029
(dp5030
g13
I49
sg16
I55
sbag0
(g44
g2
Ntp5031
Rp5032
(dp5033
g13
I29
sg16
I56
sbag0
(g44
g2
Ntp5034
Rp5035
(dp5036
g13
I30
sg16
I56
sbag0
(g44
g2
Ntp5037
Rp5038
(dp5039
g13
I31
sg16
I56
sbag0
(g44
g2
Ntp5040
Rp5041
(dp5042
g13
I32
sg16
I56
sbag0
(g44
g2
Ntp5043
Rp5044
(dp5045
g13
I33
sg16
I56
sbag0
(g44
g2
Ntp5046
Rp5047
(dp5048
g13
I34
sg16
I56
sbag0
(g44
g2
Ntp5049
Rp5050
(dp5051
g13
I35
sg16
I56
sbag0
(g44
g2
Ntp5052
Rp5053
(dp5054
g13
I36
sg16
I56
sbag0
(g44
g2
Ntp5055
Rp5056
(dp5057
g13
I37
sg16
I56
sbag0
(g44
g2
Ntp5058
Rp5059
(dp5060
g13
I38
sg16
I56
sbag0
(g44
g2
Ntp5061
Rp5062
(dp5063
g13
I39
sg16
I56
sbag0
(g44
g2
Ntp5064
Rp5065
(dp5066
g13
I40
sg16
I56
sbag0
(g44
g2
Ntp5067
Rp5068
(dp5069
g13
I41
sg16
I56
sbag0
(g44
g2
Ntp5070
Rp5071
(dp5072
g13
I42
sg16
I56
sbag0
(g44
g2
Ntp5073
Rp5074
(dp5075
g13
I43
sg16
I56
sbag0
(g44
g2
Ntp5076
Rp5077
(dp5078
g13
I44
sg16
I56
sbag0
(g44
g2
Ntp5079
Rp5080
(dp5081
g13
I45
sg16
I56
sbag0
(g44
g2
Ntp5082
Rp5083
(dp5084
g13
I46
sg16
I56
sbag0
(g44
g2
Ntp5085
Rp5086
(dp5087
g13
I47
sg16
I56
sbag0
(g44
g2
Ntp5088
Rp5089
(dp5090
g13
I48
sg16
I56
sbag0
(g44
g2
Ntp5091
Rp5092
(dp5093
g13
I49
sg16
I56
sbag0
(g44
g2
Ntp5094
Rp5095
(dp5096
g13
I29
sg16
I57
sbag0
(g44
g2
Ntp5097
Rp5098
(dp5099
g13
I30
sg16
I57
sbag0
(g44
g2
Ntp5100
Rp5101
(dp5102
g13
I31
sg16
I57
sbag0
(g44
g2
Ntp5103
Rp5104
(dp5105
g13
I32
sg16
I57
sbag0
(g44
g2
Ntp5106
Rp5107
(dp5108
g13
I33
sg16
I57
sbag0
(g44
g2
Ntp5109
Rp5110
(dp5111
g13
I34
sg16
I57
sbag0
(g44
g2
Ntp5112
Rp5113
(dp5114
g13
I35
sg16
I57
sbag0
(g44
g2
Ntp5115
Rp5116
(dp5117
g13
I36
sg16
I57
sbag0
(g44
g2
Ntp5118
Rp5119
(dp5120
g13
I37
sg16
I57
sbag0
(g44
g2
Ntp5121
Rp5122
(dp5123
g13
I38
sg16
I57
sbag0
(g44
g2
Ntp5124
Rp5125
(dp5126
g13
I39
sg16
I57
sbag0
(g44
g2
Ntp5127
Rp5128
(dp5129
g13
I40
sg16
I57
sbag0
(g44
g2
Ntp5130
Rp5131
(dp5132
g13
I41
sg16
I57
sbag0
(g44
g2
Ntp5133
Rp5134
(dp5135
g13
I42
sg16
I57
sbag0
(g44
g2
Ntp5136
Rp5137
(dp5138
g13
I43
sg16
I57
sbag0
(g44
g2
Ntp5139
Rp5140
(dp5141
g13
I44
sg16
I57
sbag0
(g44
g2
Ntp5142
Rp5143
(dp5144
g13
I45
sg16
I57
sbag0
(g44
g2
Ntp5145
Rp5146
(dp5147
g13
I46
sg16
I57
sbag0
(g44
g2
Ntp5148
Rp5149
(dp5150
g13
I47
sg16
I57
sbag0
(g44
g2
Ntp5151
Rp5152
(dp5153
g13
I48
sg16
I57
sbag0
(g44
g2
Ntp5154
Rp5155
(dp5156
g13
I49
sg16
I57
sbag0
(g44
g2
Ntp5157
Rp5158
(dp5159
g13
I29
sg16
I58
sbag0
(g44
g2
Ntp5160
Rp5161
(dp5162
g13
I30
sg16
I58
sbag0
(g44
g2
Ntp5163
Rp5164
(dp5165
g13
I31
sg16
I58
sbag0
(g44
g2
Ntp5166
Rp5167
(dp5168
g13
I32
sg16
I58
sbag0
(g44
g2
Ntp5169
Rp5170
(dp5171
g13
I33
sg16
I58
sbag0
(g44
g2
Ntp5172
Rp5173
(dp5174
g13
I34
sg16
I58
sbag0
(g44
g2
Ntp5175
Rp5176
(dp5177
g13
I35
sg16
I58
sbag0
(g44
g2
Ntp5178
Rp5179
(dp5180
g13
I36
sg16
I58
sbag0
(g44
g2
Ntp5181
Rp5182
(dp5183
g13
I37
sg16
I58
sbag0
(g44
g2
Ntp5184
Rp5185
(dp5186
g13
I38
sg16
I58
sbag0
(g44
g2
Ntp5187
Rp5188
(dp5189
g13
I39
sg16
I58
sbag0
(g44
g2
Ntp5190
Rp5191
(dp5192
g13
I40
sg16
I58
sbag0
(g44
g2
Ntp5193
Rp5194
(dp5195
g13
I41
sg16
I58
sbag0
(g44
g2
Ntp5196
Rp5197
(dp5198
g13
I42
sg16
I58
sbag0
(g44
g2
Ntp5199
Rp5200
(dp5201
g13
I43
sg16
I58
sbag0
(g44
g2
Ntp5202
Rp5203
(dp5204
g13
I44
sg16
I58
sbag0
(g44
g2
Ntp5205
Rp5206
(dp5207
g13
I45
sg16
I58
sbag0
(g44
g2
Ntp5208
Rp5209
(dp5210
g13
I46
sg16
I58
sbag0
(g44
g2
Ntp5211
Rp5212
(dp5213
g13
I47
sg16
I58
sbag0
(g44
g2
Ntp5214
Rp5215
(dp5216
g13
I48
sg16
I58
sbag0
(g44
g2
Ntp5217
Rp5218
(dp5219
g13
I49
sg16
I58
sbag0
(csrc.entities.jailbars
Jailbars
p5220
g2
Ntp5221
Rp5222
(dp5223
g13
I15
sg16
I5
sbag0
(g5220
g2
Ntp5224
Rp5225
(dp5226
g13
I15
sg16
I7
sbag0
(g5220
g2
Ntp5227
Rp5228
(dp5229
g13
I15
sg16
I9
sbag0
(g5220
g2
Ntp5230
Rp5231
(dp5232
g13
I38
sg16
I5
sbag0
(g5220
g2
Ntp5233
Rp5234
(dp5235
g13
I38
sg16
I7
sbag0
(g5220
g2
Ntp5236
Rp5237
(dp5238
g13
I38
sg16
I9
sbag0
(g5220
g2
Ntp5239
Rp5240
(dp5241
g13
I38
sg16
I11
sbag0
(g5220
g2
Ntp5242
Rp5243
(dp5244
g13
I38
sg16
I13
sbag0
(g5220
g2
Ntp5245
Rp5246
(dp5247
g13
I38
sg16
I15
sbag0
(g5220
g2
Ntp5248
Rp5249
(dp5250
g13
I38
sg16
I17
sbag0
(g5220
g2
Ntp5251
Rp5252
(dp5253
g13
I38
sg16
I19
sbag0
(g5220
g2
Ntp5254
Rp5255
(dp5256
g13
I38
sg16
I21
sbag0
(g5220
g2
Ntp5257
Rp5258
(dp5259
g13
I5
sg16
I15
sbag0
(g5220
g2
Ntp5260
Rp5261
(dp5262
g13
I7
sg16
I15
sbag0
(g5220
g2
Ntp5263
Rp5264
(dp5265
g13
I9
sg16
I15
sbag0
(g44
g2
Ntp5266
Rp5267
(dp5268
g13
I11
sg16
I15
sbag0
(g44
g2
Ntp5269
Rp5270
(dp5271
g13
I11
sg16
I17
sbag0
(g44
g2
Ntp5272
Rp5273
(dp5274
g13
I11
sg16
I20
sbag0
(g44
g2
Ntp5275
Rp5276
(dp5277
g13
I11
sg16
I22
sbag0
(g5220
g2
Ntp5278
Rp5279
(dp5280
g13
I11
sg16
I21
sbag0
(g5220
g2
Ntp5281
Rp5282
(dp5283
g13
I11
sg16
I16
sbag0
(g5220
g2
Ntp5284
Rp5285
(dp5286
g13
I12
sg16
I20
sbag0
(g5220
g2
Ntp5287
Rp5288
(dp5289
g13
I13
sg16
I20
sbag0
(g44
g2
Ntp5290
Rp5291
(dp5292
g13
I22
sg16
I11
sbag0
(g44
g2
Ntp5293
Rp5294
(dp5295
g13
I17
sg16
I11
sbag0
(g44
g2
Ntp5296
Rp5297
(dp5298
g13
I20
sg16
I11
sbag0
(g5220
g2
Ntp5299
Rp5300
(dp5301
g13
I18
sg16
I11
sbag0
(g5220
g2
Ntp5302
Rp5303
(dp5304
g13
I19
sg16
I11
sbag0
(g5220
g2
Ntp5305
Rp5306
(dp5307
g13
I16
sg16
I11
sbag0
(g5220
g2
Ntp5308
Rp5309
(dp5310
g13
I21
sg16
I11
sbag0
(csrc.entities.stone
Stone
p5311
g2
Ntp5312
Rp5313
(dp5314
g13
I4
sg16
I59
sbag0
(g5311
g2
Ntp5315
Rp5316
(dp5317
g13
I5
sg16
I59
sbag0
(g5311
g2
Ntp5318
Rp5319
(dp5320
g13
I6
sg16
I59
sbag0
(g5311
g2
Ntp5321
Rp5322
(dp5323
g13
I7
sg16
I59
sbag0
(g5311
g2
Ntp5324
Rp5325
(dp5326
g13
I8
sg16
I59
sbag0
(g5311
g2
Ntp5327
Rp5328
(dp5329
g13
I9
sg16
I59
sbag0
(g5311
g2
Ntp5330
Rp5331
(dp5332
g13
I10
sg16
I59
sbag0
(g5311
g2
Ntp5333
Rp5334
(dp5335
g13
I11
sg16
I59
sbag0
(g5311
g2
Ntp5336
Rp5337
(dp5338
g13
I12
sg16
I59
sbag0
(g5311
g2
Ntp5339
Rp5340
(dp5341
g13
I13
sg16
I59
sbag0
(g5311
g2
Ntp5342
Rp5343
(dp5344
g13
I14
sg16
I59
sbag0
(g5311
g2
Ntp5345
Rp5346
(dp5347
g13
I15
sg16
I59
sbag0
(g5311
g2
Ntp5348
Rp5349
(dp5350
g13
I16
sg16
I59
sbag0
(g5311
g2
Ntp5351
Rp5352
(dp5353
g13
I17
sg16
I59
sbag0
(g5311
g2
Ntp5354
Rp5355
(dp5356
g13
I18
sg16
I59
sbag0
(g5311
g2
Ntp5357
Rp5358
(dp5359
g13
I4
sg16
I60
sbag0
(g5311
g2
Ntp5360
Rp5361
(dp5362
g13
I5
sg16
I60
sbag0
(g5311
g2
Ntp5363
Rp5364
(dp5365
g13
I6
sg16
I60
sbag0
(g5311
g2
Ntp5366
Rp5367
(dp5368
g13
I7
sg16
I60
sbag0
(g5311
g2
Ntp5369
Rp5370
(dp5371
g13
I8
sg16
I60
sbag0
(g5311
g2
Ntp5372
Rp5373
(dp5374
g13
I9
sg16
I60
sbag0
(g5311
g2
Ntp5375
Rp5376
(dp5377
g13
I10
sg16
I60
sbag0
(g5311
g2
Ntp5378
Rp5379
(dp5380
g13
I11
sg16
I60
sbag0
(g5311
g2
Ntp5381
Rp5382
(dp5383
g13
I12
sg16
I60
sbag0
(g5311
g2
Ntp5384
Rp5385
(dp5386
g13
I13
sg16
I60
sbag0
(g5311
g2
Ntp5387
Rp5388
(dp5389
g13
I14
sg16
I60
sbag0
(g5311
g2
Ntp5390
Rp5391
(dp5392
g13
I15
sg16
I60
sbag0
(g5311
g2
Ntp5393
Rp5394
(dp5395
g13
I16
sg16
I60
sbag0
(g5311
g2
Ntp5396
Rp5397
(dp5398
g13
I17
sg16
I60
sbag0
(g5311
g2
Ntp5399
Rp5400
(dp5401
g13
I18
sg16
I60
sbag0
(g5311
g2
Ntp5402
Rp5403
(dp5404
g13
I4
sg16
I61
sbag0
(g5311
g2
Ntp5405
Rp5406
(dp5407
g13
I5
sg16
I61
sbag0
(g5311
g2
Ntp5408
Rp5409
(dp5410
g13
I6
sg16
I61
sbag0
(g5311
g2
Ntp5411
Rp5412
(dp5413
g13
I7
sg16
I61
sbag0
(g5311
g2
Ntp5414
Rp5415
(dp5416
g13
I8
sg16
I61
sbag0
(g5311
g2
Ntp5417
Rp5418
(dp5419
g13
I9
sg16
I61
sbag0
(g5311
g2
Ntp5420
Rp5421
(dp5422
g13
I10
sg16
I61
sbag0
(g5311
g2
Ntp5423
Rp5424
(dp5425
g13
I11
sg16
I61
sbag0
(g5311
g2
Ntp5426
Rp5427
(dp5428
g13
I12
sg16
I61
sbag0
(g5311
g2
Ntp5429
Rp5430
(dp5431
g13
I13
sg16
I61
sbag0
(g5311
g2
Ntp5432
Rp5433
(dp5434
g13
I14
sg16
I61
sbag0
(g5311
g2
Ntp5435
Rp5436
(dp5437
g13
I15
sg16
I61
sbag0
(g5311
g2
Ntp5438
Rp5439
(dp5440
g13
I16
sg16
I61
sbag0
(g5311
g2
Ntp5441
Rp5442
(dp5443
g13
I17
sg16
I61
sbag0
(g5311
g2
Ntp5444
Rp5445
(dp5446
g13
I18
sg16
I61
sbag0
(g5311
g2
Ntp5447
Rp5448
(dp5449
g13
I4
sg16
I62
sbag0
(g5311
g2
Ntp5450
Rp5451
(dp5452
g13
I5
sg16
I62
sbag0
(g5311
g2
Ntp5453
Rp5454
(dp5455
g13
I6
sg16
I62
sbag0
(g5311
g2
Ntp5456
Rp5457
(dp5458
g13
I7
sg16
I62
sbag0
(g5311
g2
Ntp5459
Rp5460
(dp5461
g13
I8
sg16
I62
sbag0
(g5311
g2
Ntp5462
Rp5463
(dp5464
g13
I9
sg16
I62
sbag0
(g5311
g2
Ntp5465
Rp5466
(dp5467
g13
I10
sg16
I62
sbag0
(g5311
g2
Ntp5468
Rp5469
(dp5470
g13
I11
sg16
I62
sbag0
(g5311
g2
Ntp5471
Rp5472
(dp5473
g13
I12
sg16
I62
sbag0
(g5311
g2
Ntp5474
Rp5475
(dp5476
g13
I13
sg16
I62
sbag0
(g5311
g2
Ntp5477
Rp5478
(dp5479
g13
I14
sg16
I62
sbag0
(g5311
g2
Ntp5480
Rp5481
(dp5482
g13
I15
sg16
I62
sbag0
(g5311
g2
Ntp5483
Rp5484
(dp5485
g13
I16
sg16
I62
sbag0
(g5311
g2
Ntp5486
Rp5487
(dp5488
g13
I17
sg16
I62
sbag0
(g5311
g2
Ntp5489
Rp5490
(dp5491
g13
I18
sg16
I62
sbag0
(g5311
g2
Ntp5492
Rp5493
(dp5494
g13
I4
sg16
I63
sbag0
(g5311
g2
Ntp5495
Rp5496
(dp5497
g13
I5
sg16
I63
sbag0
(g5311
g2
Ntp5498
Rp5499
(dp5500
g13
I6
sg16
I63
sbag0
(g5311
g2
Ntp5501
Rp5502
(dp5503
g13
I7
sg16
I63
sbag0
(g5311
g2
Ntp5504
Rp5505
(dp5506
g13
I8
sg16
I63
sbag0
(g5311
g2
Ntp5507
Rp5508
(dp5509
g13
I9
sg16
I63
sbag0
(g5311
g2
Ntp5510
Rp5511
(dp5512
g13
I10
sg16
I63
sbag0
(g5311
g2
Ntp5513
Rp5514
(dp5515
g13
I11
sg16
I63
sbag0
(g5311
g2
Ntp5516
Rp5517
(dp5518
g13
I12
sg16
I63
sbag0
(g5311
g2
Ntp5519
Rp5520
(dp5521
g13
I13
sg16
I63
sbag0
(g5311
g2
Ntp5522
Rp5523
(dp5524
g13
I14
sg16
I63
sbag0
(g5311
g2
Ntp5525
Rp5526
(dp5527
g13
I15
sg16
I63
sbag0
(g5311
g2
Ntp5528
Rp5529
(dp5530
g13
I16
sg16
I63
sbag0
(g5311
g2
Ntp5531
Rp5532
(dp5533
g13
I17
sg16
I63
sbag0
(g5311
g2
Ntp5534
Rp5535
(dp5536
g13
I18
sg16
I63
sbag0
(g5311
g2
Ntp5537
Rp5538
(dp5539
g13
I4
sg16
I64
sbag0
(g5311
g2
Ntp5540
Rp5541
(dp5542
g13
I5
sg16
I64
sbag0
(g5311
g2
Ntp5543
Rp5544
(dp5545
g13
I6
sg16
I64
sbag0
(g5311
g2
Ntp5546
Rp5547
(dp5548
g13
I7
sg16
I64
sbag0
(g5311
g2
Ntp5549
Rp5550
(dp5551
g13
I8
sg16
I64
sbag0
(g5311
g2
Ntp5552
Rp5553
(dp5554
g13
I9
sg16
I64
sbag0
(g5311
g2
Ntp5555
Rp5556
(dp5557
g13
I10
sg16
I64
sbag0
(g5311
g2
Ntp5558
Rp5559
(dp5560
g13
I11
sg16
I64
sbag0
(g5311
g2
Ntp5561
Rp5562
(dp5563
g13
I12
sg16
I64
sbag0
(g5311
g2
Ntp5564
Rp5565
(dp5566
g13
I13
sg16
I64
sbag0
(g5311
g2
Ntp5567
Rp5568
(dp5569
g13
I14
sg16
I64
sbag0
(g5311
g2
Ntp5570
Rp5571
(dp5572
g13
I15
sg16
I64
sbag0
(g5311
g2
Ntp5573
Rp5574
(dp5575
g13
I16
sg16
I64
sbag0
(g5311
g2
Ntp5576
Rp5577
(dp5578
g13
I17
sg16
I64
sbag0
(g5311
g2
Ntp5579
Rp5580
(dp5581
g13
I18
sg16
I64
sbag0
(g5311
g2
Ntp5582
Rp5583
(dp5584
g13
I4
sg16
I65
sbag0
(g5311
g2
Ntp5585
Rp5586
(dp5587
g13
I5
sg16
I65
sbag0
(g5311
g2
Ntp5588
Rp5589
(dp5590
g13
I6
sg16
I65
sbag0
(g5311
g2
Ntp5591
Rp5592
(dp5593
g13
I7
sg16
I65
sbag0
(g5311
g2
Ntp5594
Rp5595
(dp5596
g13
I8
sg16
I65
sbag0
(g5311
g2
Ntp5597
Rp5598
(dp5599
g13
I9
sg16
I65
sbag0
(g5311
g2
Ntp5600
Rp5601
(dp5602
g13
I10
sg16
I65
sbag0
(g5311
g2
Ntp5603
Rp5604
(dp5605
g13
I11
sg16
I65
sbag0
(g5311
g2
Ntp5606
Rp5607
(dp5608
g13
I12
sg16
I65
sbag0
(g5311
g2
Ntp5609
Rp5610
(dp5611
g13
I13
sg16
I65
sbag0
(g5311
g2
Ntp5612
Rp5613
(dp5614
g13
I14
sg16
I65
sbag0
(g5311
g2
Ntp5615
Rp5616
(dp5617
g13
I15
sg16
I65
sbag0
(g5311
g2
Ntp5618
Rp5619
(dp5620
g13
I16
sg16
I65
sbag0
(g5311
g2
Ntp5621
Rp5622
(dp5623
g13
I17
sg16
I65
sbag0
(g5311
g2
Ntp5624
Rp5625
(dp5626
g13
I18
sg16
I65
sbag0
(g5311
g2
Ntp5627
Rp5628
(dp5629
g13
I4
sg16
I66
sbag0
(g5311
g2
Ntp5630
Rp5631
(dp5632
g13
I5
sg16
I66
sbag0
(g5311
g2
Ntp5633
Rp5634
(dp5635
g13
I6
sg16
I66
sbag0
(g5311
g2
Ntp5636
Rp5637
(dp5638
g13
I7
sg16
I66
sbag0
(g5311
g2
Ntp5639
Rp5640
(dp5641
g13
I8
sg16
I66
sbag0
(g5311
g2
Ntp5642
Rp5643
(dp5644
g13
I9
sg16
I66
sbag0
(g5311
g2
Ntp5645
Rp5646
(dp5647
g13
I10
sg16
I66
sbag0
(g5311
g2
Ntp5648
Rp5649
(dp5650
g13
I11
sg16
I66
sbag0
(g5311
g2
Ntp5651
Rp5652
(dp5653
g13
I12
sg16
I66
sbag0
(g5311
g2
Ntp5654
Rp5655
(dp5656
g13
I13
sg16
I66
sbag0
(g5311
g2
Ntp5657
Rp5658
(dp5659
g13
I14
sg16
I66
sbag0
(g5311
g2
Ntp5660
Rp5661
(dp5662
g13
I15
sg16
I66
sbag0
(g5311
g2
Ntp5663
Rp5664
(dp5665
g13
I16
sg16
I66
sbag0
(g5311
g2
Ntp5666
Rp5667
(dp5668
g13
I17
sg16
I66
sbag0
(g5311
g2
Ntp5669
Rp5670
(dp5671
g13
I18
sg16
I66
sbag0
(g5311
g2
Ntp5672
Rp5673
(dp5674
g13
I4
sg16
I67
sbag0
(g5311
g2
Ntp5675
Rp5676
(dp5677
g13
I5
sg16
I67
sbag0
(g5311
g2
Ntp5678
Rp5679
(dp5680
g13
I6
sg16
I67
sbag0
(g5311
g2
Ntp5681
Rp5682
(dp5683
g13
I7
sg16
I67
sbag0
(g5311
g2
Ntp5684
Rp5685
(dp5686
g13
I8
sg16
I67
sbag0
(g5311
g2
Ntp5687
Rp5688
(dp5689
g13
I9
sg16
I67
sbag0
(g5311
g2
Ntp5690
Rp5691
(dp5692
g13
I10
sg16
I67
sbag0
(g5311
g2
Ntp5693
Rp5694
(dp5695
g13
I11
sg16
I67
sbag0
(g5311
g2
Ntp5696
Rp5697
(dp5698
g13
I12
sg16
I67
sbag0
(g5311
g2
Ntp5699
Rp5700
(dp5701
g13
I13
sg16
I67
sbag0
(g5311
g2
Ntp5702
Rp5703
(dp5704
g13
I14
sg16
I67
sbag0
(g5311
g2
Ntp5705
Rp5706
(dp5707
g13
I15
sg16
I67
sbag0
(g5311
g2
Ntp5708
Rp5709
(dp5710
g13
I16
sg16
I67
sbag0
(g5311
g2
Ntp5711
Rp5712
(dp5713
g13
I17
sg16
I67
sbag0
(g5311
g2
Ntp5714
Rp5715
(dp5716
g13
I18
sg16
I67
sbag0
(g5311
g2
Ntp5717
Rp5718
(dp5719
g13
I4
sg16
I68
sbag0
(g5311
g2
Ntp5720
Rp5721
(dp5722
g13
I5
sg16
I68
sbag0
(g5311
g2
Ntp5723
Rp5724
(dp5725
g13
I6
sg16
I68
sbag0
(g5311
g2
Ntp5726
Rp5727
(dp5728
g13
I7
sg16
I68
sbag0
(g5311
g2
Ntp5729
Rp5730
(dp5731
g13
I8
sg16
I68
sbag0
(g5311
g2
Ntp5732
Rp5733
(dp5734
g13
I9
sg16
I68
sbag0
(g5311
g2
Ntp5735
Rp5736
(dp5737
g13
I10
sg16
I68
sbag0
(g5311
g2
Ntp5738
Rp5739
(dp5740
g13
I11
sg16
I68
sbag0
(g5311
g2
Ntp5741
Rp5742
(dp5743
g13
I12
sg16
I68
sbag0
(g5311
g2
Ntp5744
Rp5745
(dp5746
g13
I13
sg16
I68
sbag0
(g5311
g2
Ntp5747
Rp5748
(dp5749
g13
I14
sg16
I68
sbag0
(g5311
g2
Ntp5750
Rp5751
(dp5752
g13
I15
sg16
I68
sbag0
(g5311
g2
Ntp5753
Rp5754
(dp5755
g13
I16
sg16
I68
sbag0
(g5311
g2
Ntp5756
Rp5757
(dp5758
g13
I17
sg16
I68
sbag0
(g5311
g2
Ntp5759
Rp5760
(dp5761
g13
I18
sg16
I68
sbag0
(g5311
g2
Ntp5762
Rp5763
(dp5764
g13
I4
sg16
I69
sbag0
(g5311
g2
Ntp5765
Rp5766
(dp5767
g13
I5
sg16
I69
sbag0
(g5311
g2
Ntp5768
Rp5769
(dp5770
g13
I6
sg16
I69
sbag0
(g5311
g2
Ntp5771
Rp5772
(dp5773
g13
I7
sg16
I69
sbag0
(g5311
g2
Ntp5774
Rp5775
(dp5776
g13
I8
sg16
I69
sbag0
(g5311
g2
Ntp5777
Rp5778
(dp5779
g13
I9
sg16
I69
sbag0
(g5311
g2
Ntp5780
Rp5781
(dp5782
g13
I10
sg16
I69
sbag0
(g5311
g2
Ntp5783
Rp5784
(dp5785
g13
I11
sg16
I69
sbag0
(g5311
g2
Ntp5786
Rp5787
(dp5788
g13
I12
sg16
I69
sbag0
(g5311
g2
Ntp5789
Rp5790
(dp5791
g13
I13
sg16
I69
sbag0
(g5311
g2
Ntp5792
Rp5793
(dp5794
g13
I14
sg16
I69
sbag0
(g5311
g2
Ntp5795
Rp5796
(dp5797
g13
I15
sg16
I69
sbag0
(g5311
g2
Ntp5798
Rp5799
(dp5800
g13
I16
sg16
I69
sbag0
(g5311
g2
Ntp5801
Rp5802
(dp5803
g13
I17
sg16
I69
sbag0
(g5311
g2
Ntp5804
Rp5805
(dp5806
g13
I18
sg16
I69
sbag0
(g5311
g2
Ntp5807
Rp5808
(dp5809
g13
I4
sg16
I70
sbag0
(g5311
g2
Ntp5810
Rp5811
(dp5812
g13
I5
sg16
I70
sbag0
(g5311
g2
Ntp5813
Rp5814
(dp5815
g13
I6
sg16
I70
sbag0
(g5311
g2
Ntp5816
Rp5817
(dp5818
g13
I7
sg16
I70
sbag0
(g5311
g2
Ntp5819
Rp5820
(dp5821
g13
I8
sg16
I70
sbag0
(g5311
g2
Ntp5822
Rp5823
(dp5824
g13
I9
sg16
I70
sbag0
(g5311
g2
Ntp5825
Rp5826
(dp5827
g13
I10
sg16
I70
sbag0
(g5311
g2
Ntp5828
Rp5829
(dp5830
g13
I11
sg16
I70
sbag0
(g5311
g2
Ntp5831
Rp5832
(dp5833
g13
I12
sg16
I70
sbag0
(g5311
g2
Ntp5834
Rp5835
(dp5836
g13
I13
sg16
I70
sbag0
(g5311
g2
Ntp5837
Rp5838
(dp5839
g13
I14
sg16
I70
sbag0
(g5311
g2
Ntp5840
Rp5841
(dp5842
g13
I15
sg16
I70
sbag0
(g5311
g2
Ntp5843
Rp5844
(dp5845
g13
I16
sg16
I70
sbag0
(g5311
g2
Ntp5846
Rp5847
(dp5848
g13
I17
sg16
I70
sbag0
(g5311
g2
Ntp5849
Rp5850
(dp5851
g13
I18
sg16
I70
sbag0
(g5311
g2
Ntp5852
Rp5853
(dp5854
g13
I4
sg16
I71
sbag0
(g5311
g2
Ntp5855
Rp5856
(dp5857
g13
I5
sg16
I71
sbag0
(g5311
g2
Ntp5858
Rp5859
(dp5860
g13
I6
sg16
I71
sbag0
(g5311
g2
Ntp5861
Rp5862
(dp5863
g13
I7
sg16
I71
sbag0
(g5311
g2
Ntp5864
Rp5865
(dp5866
g13
I8
sg16
I71
sbag0
(g5311
g2
Ntp5867
Rp5868
(dp5869
g13
I9
sg16
I71
sbag0
(g5311
g2
Ntp5870
Rp5871
(dp5872
g13
I10
sg16
I71
sbag0
(g5311
g2
Ntp5873
Rp5874
(dp5875
g13
I11
sg16
I71
sbag0
(g5311
g2
Ntp5876
Rp5877
(dp5878
g13
I12
sg16
I71
sbag0
(g5311
g2
Ntp5879
Rp5880
(dp5881
g13
I13
sg16
I71
sbag0
(g5311
g2
Ntp5882
Rp5883
(dp5884
g13
I14
sg16
I71
sbag0
(g5311
g2
Ntp5885
Rp5886
(dp5887
g13
I15
sg16
I71
sbag0
(g5311
g2
Ntp5888
Rp5889
(dp5890
g13
I16
sg16
I71
sbag0
(g5311
g2
Ntp5891
Rp5892
(dp5893
g13
I17
sg16
I71
sbag0
(g5311
g2
Ntp5894
Rp5895
(dp5896
g13
I18
sg16
I71
sbag0
(g5311
g2
Ntp5897
Rp5898
(dp5899
g13
I4
sg16
I72
sbag0
(g5311
g2
Ntp5900
Rp5901
(dp5902
g13
I5
sg16
I72
sbag0
(g5311
g2
Ntp5903
Rp5904
(dp5905
g13
I6
sg16
I72
sbag0
(g5311
g2
Ntp5906
Rp5907
(dp5908
g13
I7
sg16
I72
sbag0
(g5311
g2
Ntp5909
Rp5910
(dp5911
g13
I8
sg16
I72
sbag0
(g5311
g2
Ntp5912
Rp5913
(dp5914
g13
I9
sg16
I72
sbag0
(g5311
g2
Ntp5915
Rp5916
(dp5917
g13
I10
sg16
I72
sbag0
(g5311
g2
Ntp5918
Rp5919
(dp5920
g13
I11
sg16
I72
sbag0
(g5311
g2
Ntp5921
Rp5922
(dp5923
g13
I12
sg16
I72
sbag0
(g5311
g2
Ntp5924
Rp5925
(dp5926
g13
I13
sg16
I72
sbag0
(g5311
g2
Ntp5927
Rp5928
(dp5929
g13
I14
sg16
I72
sbag0
(g5311
g2
Ntp5930
Rp5931
(dp5932
g13
I15
sg16
I72
sbag0
(g5311
g2
Ntp5933
Rp5934
(dp5935
g13
I16
sg16
I72
sbag0
(g5311
g2
Ntp5936
Rp5937
(dp5938
g13
I17
sg16
I72
sbag0
(g5311
g2
Ntp5939
Rp5940
(dp5941
g13
I18
sg16
I72
sbag0
(g5311
g2
Ntp5942
Rp5943
(dp5944
g13
I4
sg16
I73
sbag0
(g5311
g2
Ntp5945
Rp5946
(dp5947
g13
I5
sg16
I73
sbag0
(g5311
g2
Ntp5948
Rp5949
(dp5950
g13
I6
sg16
I73
sbag0
(g5311
g2
Ntp5951
Rp5952
(dp5953
g13
I7
sg16
I73
sbag0
(g5311
g2
Ntp5954
Rp5955
(dp5956
g13
I8
sg16
I73
sbag0
(g5311
g2
Ntp5957
Rp5958
(dp5959
g13
I9
sg16
I73
sbag0
(g5311
g2
Ntp5960
Rp5961
(dp5962
g13
I10
sg16
I73
sbag0
(g5311
g2
Ntp5963
Rp5964
(dp5965
g13
I11
sg16
I73
sbag0
(g5311
g2
Ntp5966
Rp5967
(dp5968
g13
I12
sg16
I73
sbag0
(g5311
g2
Ntp5969
Rp5970
(dp5971
g13
I13
sg16
I73
sbag0
(g5311
g2
Ntp5972
Rp5973
(dp5974
g13
I14
sg16
I73
sbag0
(g5311
g2
Ntp5975
Rp5976
(dp5977
g13
I15
sg16
I73
sbag0
(g5311
g2
Ntp5978
Rp5979
(dp5980
g13
I16
sg16
I73
sbag0
(g5311
g2
Ntp5981
Rp5982
(dp5983
g13
I17
sg16
I73
sbag0
(g5311
g2
Ntp5984
Rp5985
(dp5986
g13
I18
sg16
I73
sbag0
(g5311
g2
Ntp5987
Rp5988
(dp5989
g13
I4
sg16
I74
sbag0
(g5311
g2
Ntp5990
Rp5991
(dp5992
g13
I5
sg16
I74
sbag0
(g5311
g2
Ntp5993
Rp5994
(dp5995
g13
I6
sg16
I74
sbag0
(g5311
g2
Ntp5996
Rp5997
(dp5998
g13
I7
sg16
I74
sbag0
(g5311
g2
Ntp5999
Rp6000
(dp6001
g13
I8
sg16
I74
sbag0
(g5311
g2
Ntp6002
Rp6003
(dp6004
g13
I9
sg16
I74
sbag0
(g5311
g2
Ntp6005
Rp6006
(dp6007
g13
I10
sg16
I74
sbag0
(g5311
g2
Ntp6008
Rp6009
(dp6010
g13
I11
sg16
I74
sbag0
(g5311
g2
Ntp6011
Rp6012
(dp6013
g13
I12
sg16
I74
sbag0
(g5311
g2
Ntp6014
Rp6015
(dp6016
g13
I13
sg16
I74
sbag0
(g5311
g2
Ntp6017
Rp6018
(dp6019
g13
I14
sg16
I74
sbag0
(g5311
g2
Ntp6020
Rp6021
(dp6022
g13
I15
sg16
I74
sbag0
(g5311
g2
Ntp6023
Rp6024
(dp6025
g13
I16
sg16
I74
sbag0
(g5311
g2
Ntp6026
Rp6027
(dp6028
g13
I17
sg16
I74
sbag0
(g5311
g2
Ntp6029
Rp6030
(dp6031
g13
I18
sg16
I74
sbag0
(g5311
g2
Ntp6032
Rp6033
(dp6034
g13
I32
sg16
I59
sbag0
(g5311
g2
Ntp6035
Rp6036
(dp6037
g13
I33
sg16
I59
sbag0
(g5311
g2
Ntp6038
Rp6039
(dp6040
g13
I34
sg16
I59
sbag0
(g5311
g2
Ntp6041
Rp6042
(dp6043
g13
I35
sg16
I59
sbag0
(g5311
g2
Ntp6044
Rp6045
(dp6046
g13
I36
sg16
I59
sbag0
(g5311
g2
Ntp6047
Rp6048
(dp6049
g13
I37
sg16
I59
sbag0
(g5311
g2
Ntp6050
Rp6051
(dp6052
g13
I38
sg16
I59
sbag0
(g5311
g2
Ntp6053
Rp6054
(dp6055
g13
I39
sg16
I59
sbag0
(g5311
g2
Ntp6056
Rp6057
(dp6058
g13
I40
sg16
I59
sbag0
(g5311
g2
Ntp6059
Rp6060
(dp6061
g13
I41
sg16
I59
sbag0
(g5311
g2
Ntp6062
Rp6063
(dp6064
g13
I42
sg16
I59
sbag0
(g5311
g2
Ntp6065
Rp6066
(dp6067
g13
I43
sg16
I59
sbag0
(g5311
g2
Ntp6068
Rp6069
(dp6070
g13
I44
sg16
I59
sbag0
(g5311
g2
Ntp6071
Rp6072
(dp6073
g13
I45
sg16
I59
sbag0
(g5311
g2
Ntp6074
Rp6075
(dp6076
g13
I32
sg16
I60
sbag0
(g5311
g2
Ntp6077
Rp6078
(dp6079
g13
I33
sg16
I60
sbag0
(g5311
g2
Ntp6080
Rp6081
(dp6082
g13
I34
sg16
I60
sbag0
(g5311
g2
Ntp6083
Rp6084
(dp6085
g13
I35
sg16
I60
sbag0
(g5311
g2
Ntp6086
Rp6087
(dp6088
g13
I36
sg16
I60
sbag0
(g5311
g2
Ntp6089
Rp6090
(dp6091
g13
I37
sg16
I60
sbag0
(g5311
g2
Ntp6092
Rp6093
(dp6094
g13
I38
sg16
I60
sbag0
(g5311
g2
Ntp6095
Rp6096
(dp6097
g13
I39
sg16
I60
sbag0
(g5311
g2
Ntp6098
Rp6099
(dp6100
g13
I40
sg16
I60
sbag0
(g5311
g2
Ntp6101
Rp6102
(dp6103
g13
I41
sg16
I60
sbag0
(g5311
g2
Ntp6104
Rp6105
(dp6106
g13
I42
sg16
I60
sbag0
(g5311
g2
Ntp6107
Rp6108
(dp6109
g13
I43
sg16
I60
sbag0
(g5311
g2
Ntp6110
Rp6111
(dp6112
g13
I44
sg16
I60
sbag0
(g5311
g2
Ntp6113
Rp6114
(dp6115
g13
I45
sg16
I60
sbag0
(g5311
g2
Ntp6116
Rp6117
(dp6118
g13
I32
sg16
I61
sbag0
(g5311
g2
Ntp6119
Rp6120
(dp6121
g13
I33
sg16
I61
sbag0
(g5311
g2
Ntp6122
Rp6123
(dp6124
g13
I34
sg16
I61
sbag0
(g5311
g2
Ntp6125
Rp6126
(dp6127
g13
I35
sg16
I61
sbag0
(g5311
g2
Ntp6128
Rp6129
(dp6130
g13
I36
sg16
I61
sbag0
(g5311
g2
Ntp6131
Rp6132
(dp6133
g13
I37
sg16
I61
sbag0
(g5311
g2
Ntp6134
Rp6135
(dp6136
g13
I38
sg16
I61
sbag0
(g5311
g2
Ntp6137
Rp6138
(dp6139
g13
I39
sg16
I61
sbag0
(g5311
g2
Ntp6140
Rp6141
(dp6142
g13
I40
sg16
I61
sbag0
(g5311
g2
Ntp6143
Rp6144
(dp6145
g13
I41
sg16
I61
sbag0
(g5311
g2
Ntp6146
Rp6147
(dp6148
g13
I42
sg16
I61
sbag0
(g5311
g2
Ntp6149
Rp6150
(dp6151
g13
I43
sg16
I61
sbag0
(g5311
g2
Ntp6152
Rp6153
(dp6154
g13
I44
sg16
I61
sbag0
(g5311
g2
Ntp6155
Rp6156
(dp6157
g13
I45
sg16
I61
sbag0
(g5311
g2
Ntp6158
Rp6159
(dp6160
g13
I32
sg16
I62
sbag0
(g5311
g2
Ntp6161
Rp6162
(dp6163
g13
I33
sg16
I62
sbag0
(g5311
g2
Ntp6164
Rp6165
(dp6166
g13
I34
sg16
I62
sbag0
(g5311
g2
Ntp6167
Rp6168
(dp6169
g13
I35
sg16
I62
sbag0
(g5311
g2
Ntp6170
Rp6171
(dp6172
g13
I36
sg16
I62
sbag0
(g5311
g2
Ntp6173
Rp6174
(dp6175
g13
I37
sg16
I62
sbag0
(g5311
g2
Ntp6176
Rp6177
(dp6178
g13
I38
sg16
I62
sbag0
(g5311
g2
Ntp6179
Rp6180
(dp6181
g13
I39
sg16
I62
sbag0
(g5311
g2
Ntp6182
Rp6183
(dp6184
g13
I40
sg16
I62
sbag0
(g5311
g2
Ntp6185
Rp6186
(dp6187
g13
I41
sg16
I62
sbag0
(g5311
g2
Ntp6188
Rp6189
(dp6190
g13
I42
sg16
I62
sbag0
(g5311
g2
Ntp6191
Rp6192
(dp6193
g13
I43
sg16
I62
sbag0
(g5311
g2
Ntp6194
Rp6195
(dp6196
g13
I44
sg16
I62
sbag0
(g5311
g2
Ntp6197
Rp6198
(dp6199
g13
I45
sg16
I62
sbag0
(g5311
g2
Ntp6200
Rp6201
(dp6202
g13
I32
sg16
I63
sbag0
(g5311
g2
Ntp6203
Rp6204
(dp6205
g13
I33
sg16
I63
sbag0
(g5311
g2
Ntp6206
Rp6207
(dp6208
g13
I34
sg16
I63
sbag0
(g5311
g2
Ntp6209
Rp6210
(dp6211
g13
I35
sg16
I63
sbag0
(g5311
g2
Ntp6212
Rp6213
(dp6214
g13
I36
sg16
I63
sbag0
(g5311
g2
Ntp6215
Rp6216
(dp6217
g13
I37
sg16
I63
sbag0
(g5311
g2
Ntp6218
Rp6219
(dp6220
g13
I38
sg16
I63
sbag0
(g5311
g2
Ntp6221
Rp6222
(dp6223
g13
I39
sg16
I63
sbag0
(g5311
g2
Ntp6224
Rp6225
(dp6226
g13
I40
sg16
I63
sbag0
(g5311
g2
Ntp6227
Rp6228
(dp6229
g13
I41
sg16
I63
sbag0
(g5311
g2
Ntp6230
Rp6231
(dp6232
g13
I42
sg16
I63
sbag0
(g5311
g2
Ntp6233
Rp6234
(dp6235
g13
I43
sg16
I63
sbag0
(g5311
g2
Ntp6236
Rp6237
(dp6238
g13
I44
sg16
I63
sbag0
(g5311
g2
Ntp6239
Rp6240
(dp6241
g13
I45
sg16
I63
sbag0
(g5311
g2
Ntp6242
Rp6243
(dp6244
g13
I32
sg16
I64
sbag0
(g5311
g2
Ntp6245
Rp6246
(dp6247
g13
I33
sg16
I64
sbag0
(g5311
g2
Ntp6248
Rp6249
(dp6250
g13
I34
sg16
I64
sbag0
(g5311
g2
Ntp6251
Rp6252
(dp6253
g13
I35
sg16
I64
sbag0
(g5311
g2
Ntp6254
Rp6255
(dp6256
g13
I36
sg16
I64
sbag0
(g5311
g2
Ntp6257
Rp6258
(dp6259
g13
I37
sg16
I64
sbag0
(g5311
g2
Ntp6260
Rp6261
(dp6262
g13
I38
sg16
I64
sbag0
(g5311
g2
Ntp6263
Rp6264
(dp6265
g13
I39
sg16
I64
sbag0
(g5311
g2
Ntp6266
Rp6267
(dp6268
g13
I40
sg16
I64
sbag0
(g5311
g2
Ntp6269
Rp6270
(dp6271
g13
I41
sg16
I64
sbag0
(g5311
g2
Ntp6272
Rp6273
(dp6274
g13
I42
sg16
I64
sbag0
(g5311
g2
Ntp6275
Rp6276
(dp6277
g13
I43
sg16
I64
sbag0
(g5311
g2
Ntp6278
Rp6279
(dp6280
g13
I44
sg16
I64
sbag0
(g5311
g2
Ntp6281
Rp6282
(dp6283
g13
I45
sg16
I64
sbag0
(g5311
g2
Ntp6284
Rp6285
(dp6286
g13
I32
sg16
I65
sbag0
(g5311
g2
Ntp6287
Rp6288
(dp6289
g13
I33
sg16
I65
sbag0
(g5311
g2
Ntp6290
Rp6291
(dp6292
g13
I34
sg16
I65
sbag0
(g5311
g2
Ntp6293
Rp6294
(dp6295
g13
I35
sg16
I65
sbag0
(g5311
g2
Ntp6296
Rp6297
(dp6298
g13
I36
sg16
I65
sbag0
(g5311
g2
Ntp6299
Rp6300
(dp6301
g13
I37
sg16
I65
sbag0
(g5311
g2
Ntp6302
Rp6303
(dp6304
g13
I38
sg16
I65
sbag0
(g5311
g2
Ntp6305
Rp6306
(dp6307
g13
I39
sg16
I65
sbag0
(g5311
g2
Ntp6308
Rp6309
(dp6310
g13
I40
sg16
I65
sbag0
(g5311
g2
Ntp6311
Rp6312
(dp6313
g13
I41
sg16
I65
sbag0
(g5311
g2
Ntp6314
Rp6315
(dp6316
g13
I42
sg16
I65
sbag0
(g5311
g2
Ntp6317
Rp6318
(dp6319
g13
I43
sg16
I65
sbag0
(g5311
g2
Ntp6320
Rp6321
(dp6322
g13
I44
sg16
I65
sbag0
(g5311
g2
Ntp6323
Rp6324
(dp6325
g13
I45
sg16
I65
sbag0
(g5311
g2
Ntp6326
Rp6327
(dp6328
g13
I32
sg16
I66
sbag0
(g5311
g2
Ntp6329
Rp6330
(dp6331
g13
I33
sg16
I66
sbag0
(g5311
g2
Ntp6332
Rp6333
(dp6334
g13
I34
sg16
I66
sbag0
(g5311
g2
Ntp6335
Rp6336
(dp6337
g13
I35
sg16
I66
sbag0
(g5311
g2
Ntp6338
Rp6339
(dp6340
g13
I36
sg16
I66
sbag0
(g5311
g2
Ntp6341
Rp6342
(dp6343
g13
I37
sg16
I66
sbag0
(g5311
g2
Ntp6344
Rp6345
(dp6346
g13
I38
sg16
I66
sbag0
(g5311
g2
Ntp6347
Rp6348
(dp6349
g13
I39
sg16
I66
sbag0
(g5311
g2
Ntp6350
Rp6351
(dp6352
g13
I40
sg16
I66
sbag0
(g5311
g2
Ntp6353
Rp6354
(dp6355
g13
I41
sg16
I66
sbag0
(g5311
g2
Ntp6356
Rp6357
(dp6358
g13
I42
sg16
I66
sbag0
(g5311
g2
Ntp6359
Rp6360
(dp6361
g13
I43
sg16
I66
sbag0
(g5311
g2
Ntp6362
Rp6363
(dp6364
g13
I44
sg16
I66
sbag0
(g5311
g2
Ntp6365
Rp6366
(dp6367
g13
I45
sg16
I66
sbag0
(g5311
g2
Ntp6368
Rp6369
(dp6370
g13
I32
sg16
I67
sbag0
(g5311
g2
Ntp6371
Rp6372
(dp6373
g13
I33
sg16
I67
sbag0
(g5311
g2
Ntp6374
Rp6375
(dp6376
g13
I34
sg16
I67
sbag0
(g5311
g2
Ntp6377
Rp6378
(dp6379
g13
I35
sg16
I67
sbag0
(g5311
g2
Ntp6380
Rp6381
(dp6382
g13
I36
sg16
I67
sbag0
(g5311
g2
Ntp6383
Rp6384
(dp6385
g13
I37
sg16
I67
sbag0
(g5311
g2
Ntp6386
Rp6387
(dp6388
g13
I38
sg16
I67
sbag0
(g5311
g2
Ntp6389
Rp6390
(dp6391
g13
I39
sg16
I67
sbag0
(g5311
g2
Ntp6392
Rp6393
(dp6394
g13
I40
sg16
I67
sbag0
(g5311
g2
Ntp6395
Rp6396
(dp6397
g13
I41
sg16
I67
sbag0
(g5311
g2
Ntp6398
Rp6399
(dp6400
g13
I42
sg16
I67
sbag0
(g5311
g2
Ntp6401
Rp6402
(dp6403
g13
I43
sg16
I67
sbag0
(g5311
g2
Ntp6404
Rp6405
(dp6406
g13
I44
sg16
I67
sbag0
(g5311
g2
Ntp6407
Rp6408
(dp6409
g13
I45
sg16
I67
sbag0
(g5311
g2
Ntp6410
Rp6411
(dp6412
g13
I32
sg16
I68
sbag0
(g5311
g2
Ntp6413
Rp6414
(dp6415
g13
I33
sg16
I68
sbag0
(g5311
g2
Ntp6416
Rp6417
(dp6418
g13
I34
sg16
I68
sbag0
(g5311
g2
Ntp6419
Rp6420
(dp6421
g13
I35
sg16
I68
sbag0
(g5311
g2
Ntp6422
Rp6423
(dp6424
g13
I36
sg16
I68
sbag0
(g5311
g2
Ntp6425
Rp6426
(dp6427
g13
I37
sg16
I68
sbag0
(g5311
g2
Ntp6428
Rp6429
(dp6430
g13
I38
sg16
I68
sbag0
(g5311
g2
Ntp6431
Rp6432
(dp6433
g13
I39
sg16
I68
sbag0
(g5311
g2
Ntp6434
Rp6435
(dp6436
g13
I40
sg16
I68
sbag0
(g5311
g2
Ntp6437
Rp6438
(dp6439
g13
I41
sg16
I68
sbag0
(g5311
g2
Ntp6440
Rp6441
(dp6442
g13
I42
sg16
I68
sbag0
(g5311
g2
Ntp6443
Rp6444
(dp6445
g13
I43
sg16
I68
sbag0
(g5311
g2
Ntp6446
Rp6447
(dp6448
g13
I44
sg16
I68
sbag0
(g5311
g2
Ntp6449
Rp6450
(dp6451
g13
I45
sg16
I68
sbag0
(g5311
g2
Ntp6452
Rp6453
(dp6454
g13
I32
sg16
I69
sbag0
(g5311
g2
Ntp6455
Rp6456
(dp6457
g13
I33
sg16
I69
sbag0
(g5311
g2
Ntp6458
Rp6459
(dp6460
g13
I34
sg16
I69
sbag0
(g5311
g2
Ntp6461
Rp6462
(dp6463
g13
I35
sg16
I69
sbag0
(g5311
g2
Ntp6464
Rp6465
(dp6466
g13
I36
sg16
I69
sbag0
(g5311
g2
Ntp6467
Rp6468
(dp6469
g13
I37
sg16
I69
sbag0
(g5311
g2
Ntp6470
Rp6471
(dp6472
g13
I38
sg16
I69
sbag0
(g5311
g2
Ntp6473
Rp6474
(dp6475
g13
I39
sg16
I69
sbag0
(g5311
g2
Ntp6476
Rp6477
(dp6478
g13
I40
sg16
I69
sbag0
(g5311
g2
Ntp6479
Rp6480
(dp6481
g13
I41
sg16
I69
sbag0
(g5311
g2
Ntp6482
Rp6483
(dp6484
g13
I42
sg16
I69
sbag0
(g5311
g2
Ntp6485
Rp6486
(dp6487
g13
I43
sg16
I69
sbag0
(g5311
g2
Ntp6488
Rp6489
(dp6490
g13
I44
sg16
I69
sbag0
(g5311
g2
Ntp6491
Rp6492
(dp6493
g13
I45
sg16
I69
sbag0
(g5311
g2
Ntp6494
Rp6495
(dp6496
g13
I32
sg16
I70
sbag0
(g5311
g2
Ntp6497
Rp6498
(dp6499
g13
I33
sg16
I70
sbag0
(g5311
g2
Ntp6500
Rp6501
(dp6502
g13
I34
sg16
I70
sbag0
(g5311
g2
Ntp6503
Rp6504
(dp6505
g13
I35
sg16
I70
sbag0
(g5311
g2
Ntp6506
Rp6507
(dp6508
g13
I36
sg16
I70
sbag0
(g5311
g2
Ntp6509
Rp6510
(dp6511
g13
I37
sg16
I70
sbag0
(g5311
g2
Ntp6512
Rp6513
(dp6514
g13
I38
sg16
I70
sbag0
(g5311
g2
Ntp6515
Rp6516
(dp6517
g13
I39
sg16
I70
sbag0
(g5311
g2
Ntp6518
Rp6519
(dp6520
g13
I40
sg16
I70
sbag0
(g5311
g2
Ntp6521
Rp6522
(dp6523
g13
I41
sg16
I70
sbag0
(g5311
g2
Ntp6524
Rp6525
(dp6526
g13
I42
sg16
I70
sbag0
(g5311
g2
Ntp6527
Rp6528
(dp6529
g13
I43
sg16
I70
sbag0
(g5311
g2
Ntp6530
Rp6531
(dp6532
g13
I44
sg16
I70
sbag0
(g5311
g2
Ntp6533
Rp6534
(dp6535
g13
I45
sg16
I70
sbag0
(g5311
g2
Ntp6536
Rp6537
(dp6538
g13
I32
sg16
I71
sbag0
(g5311
g2
Ntp6539
Rp6540
(dp6541
g13
I33
sg16
I71
sbag0
(g5311
g2
Ntp6542
Rp6543
(dp6544
g13
I34
sg16
I71
sbag0
(g5311
g2
Ntp6545
Rp6546
(dp6547
g13
I35
sg16
I71
sbag0
(g5311
g2
Ntp6548
Rp6549
(dp6550
g13
I36
sg16
I71
sbag0
(g5311
g2
Ntp6551
Rp6552
(dp6553
g13
I37
sg16
I71
sbag0
(g5311
g2
Ntp6554
Rp6555
(dp6556
g13
I38
sg16
I71
sbag0
(g5311
g2
Ntp6557
Rp6558
(dp6559
g13
I39
sg16
I71
sbag0
(g5311
g2
Ntp6560
Rp6561
(dp6562
g13
I40
sg16
I71
sbag0
(g5311
g2
Ntp6563
Rp6564
(dp6565
g13
I41
sg16
I71
sbag0
(g5311
g2
Ntp6566
Rp6567
(dp6568
g13
I42
sg16
I71
sbag0
(g5311
g2
Ntp6569
Rp6570
(dp6571
g13
I43
sg16
I71
sbag0
(g5311
g2
Ntp6572
Rp6573
(dp6574
g13
I44
sg16
I71
sbag0
(g5311
g2
Ntp6575
Rp6576
(dp6577
g13
I45
sg16
I71
sbag0
(g5311
g2
Ntp6578
Rp6579
(dp6580
g13
I32
sg16
I72
sbag0
(g5311
g2
Ntp6581
Rp6582
(dp6583
g13
I33
sg16
I72
sbag0
(g5311
g2
Ntp6584
Rp6585
(dp6586
g13
I34
sg16
I72
sbag0
(g5311
g2
Ntp6587
Rp6588
(dp6589
g13
I35
sg16
I72
sbag0
(g5311
g2
Ntp6590
Rp6591
(dp6592
g13
I36
sg16
I72
sbag0
(g5311
g2
Ntp6593
Rp6594
(dp6595
g13
I37
sg16
I72
sbag0
(g5311
g2
Ntp6596
Rp6597
(dp6598
g13
I38
sg16
I72
sbag0
(g5311
g2
Ntp6599
Rp6600
(dp6601
g13
I39
sg16
I72
sbag0
(g5311
g2
Ntp6602
Rp6603
(dp6604
g13
I40
sg16
I72
sbag0
(g5311
g2
Ntp6605
Rp6606
(dp6607
g13
I41
sg16
I72
sbag0
(g5311
g2
Ntp6608
Rp6609
(dp6610
g13
I42
sg16
I72
sbag0
(g5311
g2
Ntp6611
Rp6612
(dp6613
g13
I43
sg16
I72
sbag0
(g5311
g2
Ntp6614
Rp6615
(dp6616
g13
I44
sg16
I72
sbag0
(g5311
g2
Ntp6617
Rp6618
(dp6619
g13
I45
sg16
I72
sbag0
(g5311
g2
Ntp6620
Rp6621
(dp6622
g13
I32
sg16
I73
sbag0
(g5311
g2
Ntp6623
Rp6624
(dp6625
g13
I33
sg16
I73
sbag0
(g5311
g2
Ntp6626
Rp6627
(dp6628
g13
I34
sg16
I73
sbag0
(g5311
g2
Ntp6629
Rp6630
(dp6631
g13
I35
sg16
I73
sbag0
(g5311
g2
Ntp6632
Rp6633
(dp6634
g13
I36
sg16
I73
sbag0
(g5311
g2
Ntp6635
Rp6636
(dp6637
g13
I37
sg16
I73
sbag0
(g5311
g2
Ntp6638
Rp6639
(dp6640
g13
I38
sg16
I73
sbag0
(g5311
g2
Ntp6641
Rp6642
(dp6643
g13
I39
sg16
I73
sbag0
(g5311
g2
Ntp6644
Rp6645
(dp6646
g13
I40
sg16
I73
sbag0
(g5311
g2
Ntp6647
Rp6648
(dp6649
g13
I41
sg16
I73
sbag0
(g5311
g2
Ntp6650
Rp6651
(dp6652
g13
I42
sg16
I73
sbag0
(g5311
g2
Ntp6653
Rp6654
(dp6655
g13
I43
sg16
I73
sbag0
(g5311
g2
Ntp6656
Rp6657
(dp6658
g13
I44
sg16
I73
sbag0
(g5311
g2
Ntp6659
Rp6660
(dp6661
g13
I45
sg16
I73
sbag0
(g5311
g2
Ntp6662
Rp6663
(dp6664
g13
I32
sg16
I74
sbag0
(g5311
g2
Ntp6665
Rp6666
(dp6667
g13
I33
sg16
I74
sbag0
(g5311
g2
Ntp6668
Rp6669
(dp6670
g13
I34
sg16
I74
sbag0
(g5311
g2
Ntp6671
Rp6672
(dp6673
g13
I35
sg16
I74
sbag0
(g5311
g2
Ntp6674
Rp6675
(dp6676
g13
I36
sg16
I74
sbag0
(g5311
g2
Ntp6677
Rp6678
(dp6679
g13
I37
sg16
I74
sbag0
(g5311
g2
Ntp6680
Rp6681
(dp6682
g13
I38
sg16
I74
sbag0
(g5311
g2
Ntp6683
Rp6684
(dp6685
g13
I39
sg16
I74
sbag0
(g5311
g2
Ntp6686
Rp6687
(dp6688
g13
I40
sg16
I74
sbag0
(g5311
g2
Ntp6689
Rp6690
(dp6691
g13
I41
sg16
I74
sbag0
(g5311
g2
Ntp6692
Rp6693
(dp6694
g13
I42
sg16
I74
sbag0
(g5311
g2
Ntp6695
Rp6696
(dp6697
g13
I43
sg16
I74
sbag0
(g5311
g2
Ntp6698
Rp6699
(dp6700
g13
I44
sg16
I74
sbag0
(g5311
g2
Ntp6701
Rp6702
(dp6703
g13
I45
sg16
I74
sbag0
(csrc.entities.msgtrigger
MsgTrigger
p6704
g2
Ntp6705
Rp6706
(dp6707
S'y'
p6708
I24
sS'x'
p6709
I29
sS'message'
p6710
S'Hah, those bots ran right into each other!'
p6711
sS'uuid'
p6712
L225520625361161L
sS'title'
p6713
S'Wizard says:'
p6714
sbag0
(g6704
g2
Ntp6715
Rp6716
(dp6717
g6708
I25
sg6709
I29
sg6710
g6711
sg6712
L225520625361161L
sg6713
g6714
sbag0
(g6704
g2
Ntp6718
Rp6719
(dp6720
g6708
I26
sg6709
I29
sg6710
g6711
sg6712
L225520625361161L
sg6713
g6714
sbag0
(g6704
g2
Ntp6721
Rp6722
(dp6723
g6708
I24
sg6709
I30
sg6710
g6711
sg6712
L225520625361161L
sg6713
g6714
sbag0
(g6704
g2
Ntp6724
Rp6725
(dp6726
g6708
I25
sg6709
I30
sg6710
g6711
sg6712
L225520625361161L
sg6713
g6714
sbag0
(g6704
g2
Ntp6727
Rp6728
(dp6729
g6708
I26
sg6709
I30
sg6710
g6711
sg6712
L225520625361161L
sg6713
g6714
sbag0
(g6704
g2
Ntp6730
Rp6731
(dp6732
g6708
I24
sg6709
I31
sg6710
g6711
sg6712
L225520625361161L
sg6713
g6714
sbag0
(g6704
g2
Ntp6733
Rp6734
(dp6735
g6708
I25
sg6709
I31
sg6710
g6711
sg6712
L225520625361161L
sg6713
g6714
sbag0
(g6704
g2
Ntp6736
Rp6737
(dp6738
g6708
I26
sg6709
I31
sg6710
g6711
sg6712
L225520625361161L
sg6713
g6714
sbag0
(g6704
g2
Ntp6739
Rp6740
(dp6741
g6708
I7
sg6709
I17
sg6710
S"Ugh! - That simple unlock spell took all I had! The way this place diminishes my power is strange.. Well let's get on with it."
p6742
sg6712
L964207378133263L
sg6713
S'Wizard gasps:'
p6743
sbag0
(g6704
g2
Ntp6744
Rp6745
(dp6746
g6708
I8
sg6709
I17
sg6710
g6742
sg6712
L964207378133263L
sg6713
g6743
sbag0
(g6704
g2
Ntp6747
Rp6748
(dp6749
g6708
I9
sg6709
I17
sg6710
g6742
sg6712
L964207378133263L
sg6713
g6743
sbag0
(g6704
g2
Ntp6750
Rp6751
(dp6752
g6708
I10
sg6709
I17
sg6710
g6742
sg6712
L964207378133263L
sg6713
g6743
sbag0
(g6704
g2
Ntp6753
Rp6754
(dp6755
g6708
I7
sg6709
I18
sg6710
g6742
sg6712
L964207378133263L
sg6713
g6743
sbag0
(g6704
g2
Ntp6756
Rp6757
(dp6758
g6708
I8
sg6709
I18
sg6710
g6742
sg6712
L964207378133263L
sg6713
g6743
sbag0
(g6704
g2
Ntp6759
Rp6760
(dp6761
g6708
I9
sg6709
I18
sg6710
g6742
sg6712
L964207378133263L
sg6713
g6743
sbag0
(g6704
g2
Ntp6762
Rp6763
(dp6764
g6708
I10
sg6709
I18
sg6710
g6742
sg6712
L964207378133263L
sg6713
g6743
sbag0
(g6704
g2
Ntp6765
Rp6766
(dp6767
g6708
I7
sg6709
I19
sg6710
g6742
sg6712
L964207378133263L
sg6713
g6743
sbag0
(g6704
g2
Ntp6768
Rp6769
(dp6770
g6708
I8
sg6709
I19
sg6710
g6742
sg6712
L964207378133263L
sg6713
g6743
sbag0
(g6704
g2
Ntp6771
Rp6772
(dp6773
g6708
I9
sg6709
I19
sg6710
g6742
sg6712
L964207378133263L
sg6713
g6743
sbag0
(g6704
g2
Ntp6774
Rp6775
(dp6776
g6708
I10
sg6709
I19
sg6710
g6742
sg6712
L964207378133263L
sg6713
g6743
sbag0
(g6704
g2
Ntp6777
Rp6778
(dp6779
g6708
I7
sg6709
I20
sg6710
g6742
sg6712
L964207378133263L
sg6713
g6743
sbag0
(g6704
g2
Ntp6780
Rp6781
(dp6782
g6708
I8
sg6709
I20
sg6710
g6742
sg6712
L964207378133263L
sg6713
g6743
sbag0
(g6704
g2
Ntp6783
Rp6784
(dp6785
g6708
I9
sg6709
I20
sg6710
g6742
sg6712
L964207378133263L
sg6713
g6743
sbag0
(g6704
g2
Ntp6786
Rp6787
(dp6788
g6708
I10
sg6709
I20
sg6710
g6742
sg6712
L964207378133263L
sg6713
g6743
sbag0
(g6704
g2
Ntp6789
Rp6790
(dp6791
g6708
I7
sg6709
I21
sg6710
g6742
sg6712
L964207378133263L
sg6713
g6743
sbag0
(g6704
g2
Ntp6792
Rp6793
(dp6794
g6708
I8
sg6709
I21
sg6710
g6742
sg6712
L964207378133263L
sg6713
g6743
sbag0
(g6704
g2
Ntp6795
Rp6796
(dp6797
g6708
I9
sg6709
I21
sg6710
g6742
sg6712
L964207378133263L
sg6713
g6743
sbag0
(g6704
g2
Ntp6798
Rp6799
(dp6800
g6708
I10
sg6709
I21
sg6710
g6742
sg6712
L964207378133263L
sg6713
g6743
sbasS'links'
p6801
(dp6802
S'start'
p6803
(I19
I9
tp6804
sS'leveltwo'
p6805
(I77
I25
tp6806
ssS'w'
p6807
I80
sS'entities'
p6808
(lp6809
g0
(csrc.entities.prisoner
Prisoner
p6810
g2
Ntp6811
Rp6812
(dp6813
g13
I41
sg16
I7
sbag0
(g6810
g2
Ntp6814
Rp6815
(dp6816
g13
I43
sg16
I19
sbag0
(g6810
g2
Ntp6817
Rp6818
(dp6819
g13
I40
sg16
I14
sbag0
(g6704
g2
Ntp6820
Rp6821
(dp6822
g13
I14
sg16
I4
sS'message'
p6823
S"He's human but appears to be insane. Not much I could do for him."
p6824
sS'uuid'
p6825
L760201210535851L
sS'title'
p6826
S'Wizard says:'
p6827
sbag0
(g6704
g2
Ntp6828
Rp6829
(dp6830
g13
I14
sg16
I5
sg6823
g6824
sg6825
L760201210535851L
sg6826
g6827
sbag0
(g6704
g2
Ntp6831
Rp6832
(dp6833
g13
I14
sg16
I6
sg6823
g6824
sg6825
L760201210535851L
sg6826
g6827
sbag0
(g6704
g2
Ntp6834
Rp6835
(dp6836
g13
I14
sg16
I7
sg6823
g6824
sg6825
L760201210535851L
sg6826
g6827
sbag0
(g6704
g2
Ntp6837
Rp6838
(dp6839
g13
I14
sg16
I8
sg6823
g6824
sg6825
L760201210535851L
sg6826
g6827
sbag0
(g6704
g2
Ntp6840
Rp6841
(dp6842
g13
I14
sg16
I9
sg6823
g6824
sg6825
L760201210535851L
sg6826
g6827
sbag0
(g6704
g2
Ntp6843
Rp6844
(dp6845
g13
I14
sg16
I10
sg6823
g6824
sg6825
L760201210535851L
sg6826
g6827
sbag0
(g6704
g2
Ntp6846
Rp6847
(dp6848
g13
I14
sg16
I11
sg6823
g6824
sg6825
L760201210535851L
sg6826
g6827
sbag0
(g6704
g2
Ntp6849
Rp6850
(dp6851
g13
I14
sg16
I12
sg6823
g6824
sg6825
L760201210535851L
sg6826
g6827
sbag0
(g6704
g2
Ntp6852
Rp6853
(dp6854
g13
I15
sg16
I12
sg6823
g6824
sg6825
L760201210535851L
sg6826
g6827
sbag0
(g6704
g2
Ntp6855
Rp6856
(dp6857
g13
I16
sg16
I12
sg6823
g6824
sg6825
L760201210535851L
sg6826
g6827
sbag0
(g6704
g2
Ntp6858
Rp6859
(dp6860
g13
I17
sg16
I12
sg6823
g6824
sg6825
L760201210535851L
sg6826
g6827
sbag0
(g6704
g2
Ntp6861
Rp6862
(dp6863
g13
I18
sg16
I12
sg6823
g6824
sg6825
L760201210535851L
sg6826
g6827
sbag0
(g6704
g2
Ntp6864
Rp6865
(dp6866
g13
I19
sg16
I12
sg6823
g6824
sg6825
L760201210535851L
sg6826
g6827
sbag0
(g6704
g2
Ntp6867
Rp6868
(dp6869
g13
I20
sg16
I12
sg6823
g6824
sg6825
L760201210535851L
sg6826
g6827
sbag0
(g6704
g2
Ntp6870
Rp6871
(dp6872
g13
I21
sg16
I12
sg6823
g6824
sg6825
L760201210535851L
sg6826
g6827
sbag0
(g6704
g2
Ntp6873
Rp6874
(dp6875
g13
I22
sg16
I12
sg6823
g6824
sg6825
L760201210535851L
sg6826
g6827
sbag0
(g6810
g2
Ntp6876
Rp6877
(dp6878
g13
I16
sg16
I10
sbag0
(g6704
g2
Ntp6879
Rp6880
(dp6881
g13
I24
sg16
I18
sg6823
S"Herm, two robot guards. Without magic I wonder how I'll get past them."
p6882
sg6825
L735695642767900L
sg6826
S'Wizard says:'
p6883
sbag0
(g6704
g2
Ntp6884
Rp6885
(dp6886
g13
I25
sg16
I18
sg6823
g6882
sg6825
L735695642767900L
sg6826
g6883
sbag0
(g6704
g2
Ntp6887
Rp6888
(dp6889
g13
I26
sg16
I18
sg6823
g6882
sg6825
L735695642767900L
sg6826
g6883
sbag0
(g6704
g2
Ntp6890
Rp6891
(dp6892
g13
I24
sg16
I19
sg6823
g6882
sg6825
L735695642767900L
sg6826
g6883
sbag0
(g6704
g2
Ntp6893
Rp6894
(dp6895
g13
I25
sg16
I19
sg6823
g6882
sg6825
L735695642767900L
sg6826
g6883
sbag0
(g6704
g2
Ntp6896
Rp6897
(dp6898
g13
I26
sg16
I19
sg6823
g6882
sg6825
L735695642767900L
sg6826
g6883
sbag0
(g6704
g2
Ntp6899
Rp6900
(dp6901
g13
I36
sg16
I4
sg6823
S"Strange creatures make strange noises. You can tell they've been here a long time."
p6902
sg6825
L442419612088351L
sg6826
S'Wizard says:'
p6903
sbag0
(g6704
g2
Ntp6904
Rp6905
(dp6906
g13
I37
sg16
I4
sg6823
g6902
sg6825
L442419612088351L
sg6826
g6903
sbag0
(g6704
g2
Ntp6907
Rp6908
(dp6909
g13
I36
sg16
I5
sg6823
g6902
sg6825
L442419612088351L
sg6826
g6903
sbag0
(g6704
g2
Ntp6910
Rp6911
(dp6912
g13
I37
sg16
I5
sg6823
g6902
sg6825
L442419612088351L
sg6826
g6903
sbag0
(g6704
g2
Ntp6913
Rp6914
(dp6915
g13
I36
sg16
I6
sg6823
g6902
sg6825
L442419612088351L
sg6826
g6903
sbag0
(g6704
g2
Ntp6916
Rp6917
(dp6918
g13
I37
sg16
I6
sg6823
g6902
sg6825
L442419612088351L
sg6826
g6903
sbag0
(g6704
g2
Ntp6919
Rp6920
(dp6921
g13
I36
sg16
I7
sg6823
g6902
sg6825
L442419612088351L
sg6826
g6903
sbag0
(g6704
g2
Ntp6922
Rp6923
(dp6924
g13
I37
sg16
I7
sg6823
g6902
sg6825
L442419612088351L
sg6826
g6903
sbag0
(g6704
g2
Ntp6925
Rp6926
(dp6927
g13
I36
sg16
I8
sg6823
g6902
sg6825
L442419612088351L
sg6826
g6903
sbag0
(g6704
g2
Ntp6928
Rp6929
(dp6930
g13
I37
sg16
I8
sg6823
g6902
sg6825
L442419612088351L
sg6826
g6903
sbag0
(g6704
g2
Ntp6931
Rp6932
(dp6933
g13
I36
sg16
I9
sg6823
g6902
sg6825
L442419612088351L
sg6826
g6903
sbag0
(g6704
g2
Ntp6934
Rp6935
(dp6936
g13
I37
sg16
I9
sg6823
g6902
sg6825
L442419612088351L
sg6826
g6903
sbag0
(g6704
g2
Ntp6937
Rp6938
(dp6939
g13
I36
sg16
I10
sg6823
g6902
sg6825
L442419612088351L
sg6826
g6903
sbag0
(g6704
g2
Ntp6940
Rp6941
(dp6942
g13
I37
sg16
I10
sg6823
g6902
sg6825
L442419612088351L
sg6826
g6903
sbag0
(g6704
g2
Ntp6943
Rp6944
(dp6945
g13
I36
sg16
I11
sg6823
g6902
sg6825
L442419612088351L
sg6826
g6903
sbag0
(g6704
g2
Ntp6946
Rp6947
(dp6948
g13
I37
sg16
I11
sg6823
g6902
sg6825
L442419612088351L
sg6826
g6903
sbag0
(g6704
g2
Ntp6949
Rp6950
(dp6951
g13
I36
sg16
I12
sg6823
g6902
sg6825
L442419612088351L
sg6826
g6903
sbag0
(g6704
g2
Ntp6952
Rp6953
(dp6954
g13
I37
sg16
I12
sg6823
g6902
sg6825
L442419612088351L
sg6826
g6903
sbag0
(g6704
g2
Ntp6955
Rp6956
(dp6957
g13
I36
sg16
I13
sg6823
g6902
sg6825
L442419612088351L
sg6826
g6903
sbag0
(g6704
g2
Ntp6958
Rp6959
(dp6960
g13
I37
sg16
I13
sg6823
g6902
sg6825
L442419612088351L
sg6826
g6903
sbag0
(g6704
g2
Ntp6961
Rp6962
(dp6963
g13
I36
sg16
I14
sg6823
g6902
sg6825
L442419612088351L
sg6826
g6903
sbag0
(g6704
g2
Ntp6964
Rp6965
(dp6966
g13
I37
sg16
I14
sg6823
g6902
sg6825
L442419612088351L
sg6826
g6903
sbag0
(g6704
g2
Ntp6967
Rp6968
(dp6969
g13
I36
sg16
I15
sg6823
g6902
sg6825
L442419612088351L
sg6826
g6903
sbag0
(g6704
g2
Ntp6970
Rp6971
(dp6972
g13
I37
sg16
I15
sg6823
g6902
sg6825
L442419612088351L
sg6826
g6903
sbag0
(g6704
g2
Ntp6973
Rp6974
(dp6975
g13
I36
sg16
I16
sg6823
g6902
sg6825
L442419612088351L
sg6826
g6903
sbag0
(g6704
g2
Ntp6976
Rp6977
(dp6978
g13
I37
sg16
I16
sg6823
g6902
sg6825
L442419612088351L
sg6826
g6903
sbag0
(g6704
g2
Ntp6979
Rp6980
(dp6981
g13
I36
sg16
I17
sg6823
g6902
sg6825
L442419612088351L
sg6826
g6903
sbag0
(g6704
g2
Ntp6982
Rp6983
(dp6984
g13
I37
sg16
I17
sg6823
g6902
sg6825
L442419612088351L
sg6826
g6903
sbag0
(g6704
g2
Ntp6985
Rp6986
(dp6987
g13
I36
sg16
I18
sg6823
g6902
sg6825
L442419612088351L
sg6826
g6903
sbag0
(g6704
g2
Ntp6988
Rp6989
(dp6990
g13
I37
sg16
I18
sg6823
g6902
sg6825
L442419612088351L
sg6826
g6903
sbag0
(g6704
g2
Ntp6991
Rp6992
(dp6993
g13
I36
sg16
I19
sg6823
g6902
sg6825
L442419612088351L
sg6826
g6903
sbag0
(g6704
g2
Ntp6994
Rp6995
(dp6996
g13
I37
sg16
I19
sg6823
g6902
sg6825
L442419612088351L
sg6826
g6903
sbag0
(g6704
g2
Ntp6997
Rp6998
(dp6999
g13
I36
sg16
I20
sg6823
g6902
sg6825
L442419612088351L
sg6826
g6903
sbag0
(g6704
g2
Ntp7000
Rp7001
(dp7002
g13
I37
sg16
I20
sg6823
g6902
sg6825
L442419612088351L
sg6826
g6903
sbag0
(g6704
g2
Ntp7003
Rp7004
(dp7005
g13
I36
sg16
I21
sg6823
g6902
sg6825
L442419612088351L
sg6826
g6903
sbag0
(g6704
g2
Ntp7006
Rp7007
(dp7008
g13
I37
sg16
I21
sg6823
g6902
sg6825
L442419612088351L
sg6826
g6903
sbag0
(g6704
g2
Ntp7009
Rp7010
(dp7011
g13
I36
sg16
I22
sg6823
g6902
sg6825
L442419612088351L
sg6826
g6903
sbag0
(g6704
g2
Ntp7012
Rp7013
(dp7014
g13
I37
sg16
I22
sg6823
g6902
sg6825
L442419612088351L
sg6826
g6903
sbag0
(g6704
g2
Ntp7015
Rp7016
(dp7017
g13
I24
sg16
I74
sg6823
S'Aha, here are the stairs to the next floor. Lets get out of here.'
p7018
sg6825
L234500913747762L
sg6826
S'Wizard says:'
p7019
sbag0
(g6704
g2
Ntp7020
Rp7021
(dp7022
g13
I25
sg16
I74
sg6823
g7018
sg6825
L234500913747762L
sg6826
g7019
sbag0
(g6704
g2
Ntp7023
Rp7024
(dp7025
g13
I26
sg16
I74
sg6823
g7018
sg6825
L234500913747762L
sg6826
g7019
sbag0
(g6704
g2
Ntp7026
Rp7027
(dp7028
g13
I24
sg16
I75
sg6823
g7018
sg6825
L234500913747762L
sg6826
g7019
sbag0
(g6704
g2
Ntp7029
Rp7030
(dp7031
g13
I25
sg16
I75
sg6823
g7018
sg6825
L234500913747762L
sg6826
g7019
sbag0
(g6704
g2
Ntp7032
Rp7033
(dp7034
g13
I26
sg16
I75
sg6823
g7018
sg6825
L234500913747762L
sg6826
g7019
sbag0
(csrc.entities.robotguard
RobotGuard
p7035
g2
Ntp7036
Rp7037
(dp7038
g13
I26
sg16
I29
sg6825
L876291931303223L
sbag0
(g7035
g2
Ntp7039
Rp7040
(dp7041
g13
I24
sg16
I29
sg6825
L913677384261030L
sbag0
(g7035
g2
Ntp7042
Rp7043
(dp7044
g13
I19
sg16
I39
sg6825
L585243315999122L
sbag0
(g7035
g2
Ntp7045
Rp7046
(dp7047
g13
I31
sg16
I39
sg6825
L945629901536202L
sbag0
(g7035
g2
Ntp7048
Rp7049
(dp7050
g13
I21
sg16
I66
sg6825
L186355494423305L
sbag0
(g7035
g2
Ntp7051
Rp7052
(dp7053
g13
I29
sg16
I66
sg6825
L964042588595850L
sbag0
(csrc.entities.door
Door
p7054
g2
Ntp7055
Rp7056
(dp7057
g13
I23
sg16
I18
sg6825
L521604489820149L
sbag0
(g7054
g2
Ntp7058
Rp7059
(dp7060
g13
I23
sg16
I19
sg6825
L521604489820149L
sbag0
(g7054
g2
Ntp7061
Rp7062
(dp7063
g13
I28
sg16
I18
sg6825
L906701905259904L
sbag0
(g7054
g2
Ntp7064
Rp7065
(dp7066
g13
I28
sg16
I19
sg6825
L906701905259904L
sbag0
(g7054
g2
Ntp7067
Rp7068
(dp7069
g13
I24
sg16
I73
sg6825
L712947504091047L
sbag0
(g7054
g2
Ntp7070
Rp7071
(dp7072
g13
I25
sg16
I73
sg6825
L712947504091047L
sbag0
(g7054
g2
Ntp7073
Rp7074
(dp7075
g13
I26
sg16
I73
sg6825
L712947504091047L
sbag0
(csrc.entities.electricity
Electricity
p7076
g2
Ntp7077
Rp7078
(dp7079
g13
I5
sg16
I28
sbag0
(g7076
g2
Ntp7080
Rp7081
(dp7082
g13
I6
sg16
I28
sbag0
(g7076
g2
Ntp7083
Rp7084
(dp7085
g13
I7
sg16
I28
sbag0
(g7076
g2
Ntp7086
Rp7087
(dp7088
g13
I8
sg16
I28
sbag0
(g7076
g2
Ntp7089
Rp7090
(dp7091
g13
I9
sg16
I28
sbag0
(g7076
g2
Ntp7092
Rp7093
(dp7094
g13
I10
sg16
I28
sbag0
(g7076
g2
Ntp7095
Rp7096
(dp7097
g13
I11
sg16
I28
sbag0
(g7076
g2
Ntp7098
Rp7099
(dp7100
g13
I12
sg16
I28
sbag0
(g7076
g2
Ntp7101
Rp7102
(dp7103
g13
I13
sg16
I28
sbag0
(g7076
g2
Ntp7104
Rp7105
(dp7106
g13
I14
sg16
I28
sbag0
(g7076
g2
Ntp7107
Rp7108
(dp7109
g13
I15
sg16
I28
sbag0
(g7076
g2
Ntp7110
Rp7111
(dp7112
g13
I16
sg16
I28
sbag0
(g7076
g2
Ntp7113
Rp7114
(dp7115
g13
I17
sg16
I28
sbag0
(g7076
g2
Ntp7116
Rp7117
(dp7118
g13
I18
sg16
I28
sbag0
(g7076
g2
Ntp7119
Rp7120
(dp7121
g13
I19
sg16
I28
sbag0
(g7076
g2
Ntp7122
Rp7123
(dp7124
g13
I20
sg16
I28
sbag0
(g7076
g2
Ntp7125
Rp7126
(dp7127
g13
I21
sg16
I28
sbag0
(g7076
g2
Ntp7128
Rp7129
(dp7130
g13
I4
sg16
I28
sbag0
(g7076
g2
Ntp7131
Rp7132
(dp7133
g13
I4
sg16
I29
sbag0
(g7076
g2
Ntp7134
Rp7135
(dp7136
g13
I4
sg16
I30
sbag0
(g7076
g2
Ntp7137
Rp7138
(dp7139
g13
I4
sg16
I31
sbag0
(g7076
g2
Ntp7140
Rp7141
(dp7142
g13
I4
sg16
I32
sbag0
(g7076
g2
Ntp7143
Rp7144
(dp7145
g13
I4
sg16
I33
sbag0
(g7076
g2
Ntp7146
Rp7147
(dp7148
g13
I4
sg16
I34
sbag0
(g7076
g2
Ntp7149
Rp7150
(dp7151
g13
I4
sg16
I35
sbag0
(g7076
g2
Ntp7152
Rp7153
(dp7154
g13
I4
sg16
I36
sbag0
(g7076
g2
Ntp7155
Rp7156
(dp7157
g13
I4
sg16
I37
sbag0
(g7076
g2
Ntp7158
Rp7159
(dp7160
g13
I4
sg16
I38
sbag0
(g7076
g2
Ntp7161
Rp7162
(dp7163
g13
I4
sg16
I39
sbag0
(g7076
g2
Ntp7164
Rp7165
(dp7166
g13
I4
sg16
I40
sbag0
(g7076
g2
Ntp7167
Rp7168
(dp7169
g13
I4
sg16
I41
sbag0
(g7076
g2
Ntp7170
Rp7171
(dp7172
g13
I4
sg16
I42
sbag0
(g7076
g2
Ntp7173
Rp7174
(dp7175
g13
I4
sg16
I43
sbag0
(g7076
g2
Ntp7176
Rp7177
(dp7178
g13
I4
sg16
I44
sbag0
(g7076
g2
Ntp7179
Rp7180
(dp7181
g13
I4
sg16
I45
sbag0
(g7076
g2
Ntp7182
Rp7183
(dp7184
g13
I4
sg16
I46
sbag0
(g7076
g2
Ntp7185
Rp7186
(dp7187
g13
I4
sg16
I47
sbag0
(g7076
g2
Ntp7188
Rp7189
(dp7190
g13
I4
sg16
I48
sbag0
(g7076
g2
Ntp7191
Rp7192
(dp7193
g13
I4
sg16
I49
sbag0
(g7076
g2
Ntp7194
Rp7195
(dp7196
g13
I4
sg16
I50
sbag0
(g7076
g2
Ntp7197
Rp7198
(dp7199
g13
I5
sg16
I50
sbag0
(g7076
g2
Ntp7200
Rp7201
(dp7202
g13
I6
sg16
I50
sbag0
(g7076
g2
Ntp7203
Rp7204
(dp7205
g13
I7
sg16
I50
sbag0
(g7076
g2
Ntp7206
Rp7207
(dp7208
g13
I8
sg16
I50
sbag0
(g7076
g2
Ntp7209
Rp7210
(dp7211
g13
I9
sg16
I50
sbag0
(g7076
g2
Ntp7212
Rp7213
(dp7214
g13
I10
sg16
I50
sbag0
(g7076
g2
Ntp7215
Rp7216
(dp7217
g13
I11
sg16
I50
sbag0
(g7076
g2
Ntp7218
Rp7219
(dp7220
g13
I12
sg16
I50
sbag0
(g7076
g2
Ntp7221
Rp7222
(dp7223
g13
I13
sg16
I50
sbag0
(g7076
g2
Ntp7224
Rp7225
(dp7226
g13
I14
sg16
I50
sbag0
(g7076
g2
Ntp7227
Rp7228
(dp7229
g13
I15
sg16
I50
sbag0
(g7076
g2
Ntp7230
Rp7231
(dp7232
g13
I16
sg16
I50
sbag0
(g7076
g2
Ntp7233
Rp7234
(dp7235
g13
I17
sg16
I50
sbag0
(g7076
g2
Ntp7236
Rp7237
(dp7238
g13
I18
sg16
I50
sbag0
(g7076
g2
Ntp7239
Rp7240
(dp7241
g13
I19
sg16
I50
sbag0
(g7076
g2
Ntp7242
Rp7243
(dp7244
g13
I20
sg16
I50
sbag0
(g7076
g2
Ntp7245
Rp7246
(dp7247
g13
I21
sg16
I50
sbag0
(g7076
g2
Ntp7248
Rp7249
(dp7250
g13
I29
sg16
I28
sbag0
(g7076
g2
Ntp7251
Rp7252
(dp7253
g13
I30
sg16
I28
sbag0
(g7076
g2
Ntp7254
Rp7255
(dp7256
g13
I31
sg16
I28
sbag0
(g7076
g2
Ntp7257
Rp7258
(dp7259
g13
I32
sg16
I28
sbag0
(g7076
g2
Ntp7260
Rp7261
(dp7262
g13
I33
sg16
I28
sbag0
(g7076
g2
Ntp7263
Rp7264
(dp7265
g13
I34
sg16
I28
sbag0
(g7076
g2
Ntp7266
Rp7267
(dp7268
g13
I35
sg16
I28
sbag0
(g7076
g2
Ntp7269
Rp7270
(dp7271
g13
I36
sg16
I28
sbag0
(g7076
g2
Ntp7272
Rp7273
(dp7274
g13
I37
sg16
I28
sbag0
(g7076
g2
Ntp7275
Rp7276
(dp7277
g13
I38
sg16
I28
sbag0
(g7076
g2
Ntp7278
Rp7279
(dp7280
g13
I39
sg16
I28
sbag0
(g7076
g2
Ntp7281
Rp7282
(dp7283
g13
I40
sg16
I28
sbag0
(g7076
g2
Ntp7284
Rp7285
(dp7286
g13
I41
sg16
I28
sbag0
(g7076
g2
Ntp7287
Rp7288
(dp7289
g13
I42
sg16
I28
sbag0
(g7076
g2
Ntp7290
Rp7291
(dp7292
g13
I43
sg16
I28
sbag0
(g7076
g2
Ntp7293
Rp7294
(dp7295
g13
I44
sg16
I28
sbag0
(g7076
g2
Ntp7296
Rp7297
(dp7298
g13
I45
sg16
I28
sbag0
(g7076
g2
Ntp7299
Rp7300
(dp7301
g13
I45
sg16
I29
sbag0
(g7076
g2
Ntp7302
Rp7303
(dp7304
g13
I45
sg16
I30
sbag0
(g7076
g2
Ntp7305
Rp7306
(dp7307
g13
I45
sg16
I31
sbag0
(g7076
g2
Ntp7308
Rp7309
(dp7310
g13
I45
sg16
I32
sbag0
(g7076
g2
Ntp7311
Rp7312
(dp7313
g13
I45
sg16
I33
sbag0
(g7076
g2
Ntp7314
Rp7315
(dp7316
g13
I45
sg16
I34
sbag0
(g7076
g2
Ntp7317
Rp7318
(dp7319
g13
I45
sg16
I35
sbag0
(g7076
g2
Ntp7320
Rp7321
(dp7322
g13
I45
sg16
I36
sbag0
(g7076
g2
Ntp7323
Rp7324
(dp7325
g13
I45
sg16
I37
sbag0
(g7076
g2
Ntp7326
Rp7327
(dp7328
g13
I45
sg16
I38
sbag0
(g7076
g2
Ntp7329
Rp7330
(dp7331
g13
I45
sg16
I39
sbag0
(g7076
g2
Ntp7332
Rp7333
(dp7334
g13
I45
sg16
I40
sbag0
(g7076
g2
Ntp7335
Rp7336
(dp7337
g13
I45
sg16
I41
sbag0
(g7076
g2
Ntp7338
Rp7339
(dp7340
g13
I45
sg16
I42
sbag0
(g7076
g2
Ntp7341
Rp7342
(dp7343
g13
I45
sg16
I43
sbag0
(g7076
g2
Ntp7344
Rp7345
(dp7346
g13
I45
sg16
I44
sbag0
(g7076
g2
Ntp7347
Rp7348
(dp7349
g13
I45
sg16
I45
sbag0
(g7076
g2
Ntp7350
Rp7351
(dp7352
g13
I45
sg16
I46
sbag0
(g7076
g2
Ntp7353
Rp7354
(dp7355
g13
I45
sg16
I47
sbag0
(g7076
g2
Ntp7356
Rp7357
(dp7358
g13
I45
sg16
I48
sbag0
(g7076
g2
Ntp7359
Rp7360
(dp7361
g13
I45
sg16
I49
sbag0
(g7076
g2
Ntp7362
Rp7363
(dp7364
g13
I29
sg16
I50
sbag0
(g7076
g2
Ntp7365
Rp7366
(dp7367
g13
I30
sg16
I50
sbag0
(g7076
g2
Ntp7368
Rp7369
(dp7370
g13
I31
sg16
I50
sbag0
(g7076
g2
Ntp7371
Rp7372
(dp7373
g13
I32
sg16
I50
sbag0
(g7076
g2
Ntp7374
Rp7375
(dp7376
g13
I33
sg16
I50
sbag0
(g7076
g2
Ntp7377
Rp7378
(dp7379
g13
I34
sg16
I50
sbag0
(g7076
g2
Ntp7380
Rp7381
(dp7382
g13
I35
sg16
I50
sbag0
(g7076
g2
Ntp7383
Rp7384
(dp7385
g13
I36
sg16
I50
sbag0
(g7076
g2
Ntp7386
Rp7387
(dp7388
g13
I37
sg16
I50
sbag0
(g7076
g2
Ntp7389
Rp7390
(dp7391
g13
I38
sg16
I50
sbag0
(g7076
g2
Ntp7392
Rp7393
(dp7394
g13
I39
sg16
I50
sbag0
(g7076
g2
Ntp7395
Rp7396
(dp7397
g13
I40
sg16
I50
sbag0
(g7076
g2
Ntp7398
Rp7399
(dp7400
g13
I41
sg16
I50
sbag0
(g7076
g2
Ntp7401
Rp7402
(dp7403
g13
I42
sg16
I50
sbag0
(g7076
g2
Ntp7404
Rp7405
(dp7406
g13
I43
sg16
I50
sbag0
(g7076
g2
Ntp7407
Rp7408
(dp7409
g13
I44
sg16
I50
sbag0
(g7076
g2
Ntp7410
Rp7411
(dp7412
g13
I45
sg16
I50
sbag0
(g7076
g2
Ntp7413
Rp7414
(dp7415
g13
I32
sg16
I60
sbag0
(g7076
g2
Ntp7416
Rp7417
(dp7418
g13
I32
sg16
I62
sbag0
(g7076
g2
Ntp7419
Rp7420
(dp7421
g13
I32
sg16
I64
sbag0
(g7076
g2
Ntp7422
Rp7423
(dp7424
g13
I32
sg16
I66
sbag0
(g7076
g2
Ntp7425
Rp7426
(dp7427
g13
I32
sg16
I68
sbag0
(g7076
g2
Ntp7428
Rp7429
(dp7430
g13
I32
sg16
I70
sbag0
(g7076
g2
Ntp7431
Rp7432
(dp7433
g13
I32
sg16
I72
sbag0
(g7076
g2
Ntp7434
Rp7435
(dp7436
g13
I32
sg16
I74
sbag0
(g7076
g2
Ntp7437
Rp7438
(dp7439
g13
I18
sg16
I60
sbag0
(g7076
g2
Ntp7440
Rp7441
(dp7442
g13
I18
sg16
I62
sbag0
(g7076
g2
Ntp7443
Rp7444
(dp7445
g13
I18
sg16
I64
sbag0
(g7076
g2
Ntp7446
Rp7447
(dp7448
g13
I18
sg16
I66
sbag0
(g7076
g2
Ntp7449
Rp7450
(dp7451
g13
I18
sg16
I68
sbag0
(g7076
g2
Ntp7452
Rp7453
(dp7454
g13
I18
sg16
I70
sbag0
(g7076
g2
Ntp7455
Rp7456
(dp7457
g13
I18
sg16
I72
sbag0
(g7076
g2
Ntp7458
Rp7459
(dp7460
g13
I18
sg16
I74
sbag0
(csrc.entities.guardgenerator
GuardGenerator
p7461
g2
Ntp7462
Rp7463
(dp7464
S'y'
p7465
I42
sS'x'
p7466
I31
sS'guard'
p7467
NsS'_delay'
p7468
I4
sbag0
(g7461
g2
Ntp7469
Rp7470
(dp7471
g7465
I42
sg7466
I47
sg7467
Nsg7468
I4
sbag0
(g7461
g2
Ntp7472
Rp7473
(dp7474
g7465
I7
sg7466
I31
sg7467
Nsg7468
I4
sbag0
(g7461
g2
Ntp7475
Rp7476
(dp7477
g7465
I7
sg7466
I47
sg7467
Nsg7468
I4
sbag0
(g6704
g2
Ntp7478
Rp7479
(dp7480
g6708
I24
sg6709
I44
sg6710
S'Can those bots really be so stupid? Their programming must be really basic..'
p7481
sg6712
L954265072661416L
sg6713
S'Wizard smirks:'
p7482
sbag0
(g6704
g2
Ntp7483
Rp7484
(dp7485
g6708
I25
sg6709
I44
sg6710
g7481
sg6712
L954265072661416L
sg6713
g7482
sbag0
(g6704
g2
Ntp7486
Rp7487
(dp7488
g6708
I26
sg6709
I44
sg6710
g7481
sg6712
L954265072661416L
sg6713
g7482
sbasb.