ccopy_reg
_reconstructor
p0
(csrc.level
Level
p1
c__builtin__
object
p2
Ntp3
Rp4
(dp5
S'h'
p6
I50
sS'tiles'
p7
(lp8
g0
(csrc.entities.upexit
UpExit
p9
g2
Ntp10
Rp11
(dp12
S'y'
p13
I23
sS'linkname'
p14
S'leveltwo'
p15
sS'x'
p16
I78
sbag0
(g9
g2
Ntp17
Rp18
(dp19
g13
I24
sg14
g15
sg16
I78
sbag0
(g9
g2
Ntp20
Rp21
(dp22
g13
I25
sg14
g15
sg16
I78
sbag0
(g9
g2
Ntp23
Rp24
(dp25
g13
I26
sg14
g15
sg16
I78
sbag0
(g9
g2
Ntp26
Rp27
(dp28
g13
I27
sg14
g15
sg16
I78
sbag0
(g9
g2
Ntp29
Rp30
(dp31
g13
I23
sg14
g15
sg16
I79
sbag0
(g9
g2
Ntp32
Rp33
(dp34
g13
I24
sg14
g15
sg16
I79
sbag0
(g9
g2
Ntp35
Rp36
(dp37
g13
I25
sg14
g15
sg16
I79
sbag0
(g9
g2
Ntp38
Rp39
(dp40
g13
I26
sg14
g15
sg16
I79
sbag0
(g9
g2
Ntp41
Rp42
(dp43
g13
I27
sg14
g15
sg16
I79
sbag0
(csrc.entities.stonewall
StoneWall
p44
g2
Ntp45
Rp46
(dp47
S'y'
p48
I4
sS'x'
p49
I0
sbag0
(g44
g2
Ntp50
Rp51
(dp52
g48
I5
sg49
I0
sbag0
(g44
g2
Ntp53
Rp54
(dp55
g48
I6
sg49
I0
sbag0
(g44
g2
Ntp56
Rp57
(dp58
g48
I7
sg49
I0
sbag0
(g44
g2
Ntp59
Rp60
(dp61
g48
I8
sg49
I0
sbag0
(g44
g2
Ntp62
Rp63
(dp64
g48
I9
sg49
I0
sbag0
(g44
g2
Ntp65
Rp66
(dp67
g48
I10
sg49
I0
sbag0
(g44
g2
Ntp68
Rp69
(dp70
g48
I11
sg49
I0
sbag0
(g44
g2
Ntp71
Rp72
(dp73
g48
I12
sg49
I0
sbag0
(g44
g2
Ntp74
Rp75
(dp76
g48
I13
sg49
I0
sbag0
(g44
g2
Ntp77
Rp78
(dp79
g48
I14
sg49
I0
sbag0
(g44
g2
Ntp80
Rp81
(dp82
g48
I15
sg49
I0
sbag0
(g44
g2
Ntp83
Rp84
(dp85
g48
I16
sg49
I0
sbag0
(g44
g2
Ntp86
Rp87
(dp88
g48
I17
sg49
I0
sbag0
(g44
g2
Ntp89
Rp90
(dp91
g48
I18
sg49
I0
sbag0
(g44
g2
Ntp92
Rp93
(dp94
g48
I19
sg49
I0
sbag0
(g44
g2
Ntp95
Rp96
(dp97
g48
I20
sg49
I0
sbag0
(g44
g2
Ntp98
Rp99
(dp100
g48
I21
sg49
I0
sbag0
(g44
g2
Ntp101
Rp102
(dp103
g48
I22
sg49
I0
sbag0
(g44
g2
Ntp104
Rp105
(dp106
g48
I23
sg49
I0
sbag0
(g44
g2
Ntp107
Rp108
(dp109
g48
I24
sg49
I0
sbag0
(g44
g2
Ntp110
Rp111
(dp112
g48
I25
sg49
I0
sbag0
(g44
g2
Ntp113
Rp114
(dp115
g48
I26
sg49
I0
sbag0
(g44
g2
Ntp116
Rp117
(dp118
g48
I27
sg49
I0
sbag0
(g44
g2
Ntp119
Rp120
(dp121
g48
I28
sg49
I0
sbag0
(g44
g2
Ntp122
Rp123
(dp124
g48
I29
sg49
I0
sbag0
(g44
g2
Ntp125
Rp126
(dp127
g48
I30
sg49
I0
sbag0
(g44
g2
Ntp128
Rp129
(dp130
g48
I31
sg49
I0
sbag0
(g44
g2
Ntp131
Rp132
(dp133
g48
I32
sg49
I0
sbag0
(g44
g2
Ntp134
Rp135
(dp136
g48
I33
sg49
I0
sbag0
(g44
g2
Ntp137
Rp138
(dp139
g48
I34
sg49
I0
sbag0
(g44
g2
Ntp140
Rp141
(dp142
g48
I35
sg49
I0
sbag0
(g44
g2
Ntp143
Rp144
(dp145
g48
I36
sg49
I0
sbag0
(g44
g2
Ntp146
Rp147
(dp148
g48
I37
sg49
I0
sbag0
(g44
g2
Ntp149
Rp150
(dp151
g48
I38
sg49
I0
sbag0
(g44
g2
Ntp152
Rp153
(dp154
g48
I39
sg49
I0
sbag0
(g44
g2
Ntp155
Rp156
(dp157
g48
I40
sg49
I0
sbag0
(g44
g2
Ntp158
Rp159
(dp160
g48
I41
sg49
I0
sbag0
(g44
g2
Ntp161
Rp162
(dp163
g48
I42
sg49
I0
sbag0
(g44
g2
Ntp164
Rp165
(dp166
g48
I43
sg49
I0
sbag0
(g44
g2
Ntp167
Rp168
(dp169
g48
I44
sg49
I0
sbag0
(g44
g2
Ntp170
Rp171
(dp172
g48
I45
sg49
I0
sbag0
(g44
g2
Ntp173
Rp174
(dp175
g48
I4
sg49
I1
sbag0
(g44
g2
Ntp176
Rp177
(dp178
g48
I5
sg49
I1
sbag0
(g44
g2
Ntp179
Rp180
(dp181
g48
I6
sg49
I1
sbag0
(g44
g2
Ntp182
Rp183
(dp184
g48
I7
sg49
I1
sbag0
(g44
g2
Ntp185
Rp186
(dp187
g48
I8
sg49
I1
sbag0
(g44
g2
Ntp188
Rp189
(dp190
g48
I9
sg49
I1
sbag0
(g44
g2
Ntp191
Rp192
(dp193
g48
I10
sg49
I1
sbag0
(g44
g2
Ntp194
Rp195
(dp196
g48
I11
sg49
I1
sbag0
(g44
g2
Ntp197
Rp198
(dp199
g48
I12
sg49
I1
sbag0
(g44
g2
Ntp200
Rp201
(dp202
g48
I13
sg49
I1
sbag0
(g44
g2
Ntp203
Rp204
(dp205
g48
I14
sg49
I1
sbag0
(g44
g2
Ntp206
Rp207
(dp208
g48
I15
sg49
I1
sbag0
(g44
g2
Ntp209
Rp210
(dp211
g48
I16
sg49
I1
sbag0
(g44
g2
Ntp212
Rp213
(dp214
g48
I17
sg49
I1
sbag0
(g44
g2
Ntp215
Rp216
(dp217
g48
I18
sg49
I1
sbag0
(g44
g2
Ntp218
Rp219
(dp220
g48
I19
sg49
I1
sbag0
(g44
g2
Ntp221
Rp222
(dp223
g48
I20
sg49
I1
sbag0
(g44
g2
Ntp224
Rp225
(dp226
g48
I21
sg49
I1
sbag0
(g44
g2
Ntp227
Rp228
(dp229
g48
I22
sg49
I1
sbag0
(g44
g2
Ntp230
Rp231
(dp232
g48
I23
sg49
I1
sbag0
(g44
g2
Ntp233
Rp234
(dp235
g48
I24
sg49
I1
sbag0
(g44
g2
Ntp236
Rp237
(dp238
g48
I25
sg49
I1
sbag0
(g44
g2
Ntp239
Rp240
(dp241
g48
I26
sg49
I1
sbag0
(g44
g2
Ntp242
Rp243
(dp244
g48
I27
sg49
I1
sbag0
(g44
g2
Ntp245
Rp246
(dp247
g48
I28
sg49
I1
sbag0
(g44
g2
Ntp248
Rp249
(dp250
g48
I29
sg49
I1
sbag0
(g44
g2
Ntp251
Rp252
(dp253
g48
I30
sg49
I1
sbag0
(g44
g2
Ntp254
Rp255
(dp256
g48
I31
sg49
I1
sbag0
(g44
g2
Ntp257
Rp258
(dp259
g48
I32
sg49
I1
sbag0
(g44
g2
Ntp260
Rp261
(dp262
g48
I33
sg49
I1
sbag0
(g44
g2
Ntp263
Rp264
(dp265
g48
I34
sg49
I1
sbag0
(g44
g2
Ntp266
Rp267
(dp268
g48
I35
sg49
I1
sbag0
(g44
g2
Ntp269
Rp270
(dp271
g48
I36
sg49
I1
sbag0
(g44
g2
Ntp272
Rp273
(dp274
g48
I37
sg49
I1
sbag0
(g44
g2
Ntp275
Rp276
(dp277
g48
I38
sg49
I1
sbag0
(g44
g2
Ntp278
Rp279
(dp280
g48
I39
sg49
I1
sbag0
(g44
g2
Ntp281
Rp282
(dp283
g48
I40
sg49
I1
sbag0
(g44
g2
Ntp284
Rp285
(dp286
g48
I41
sg49
I1
sbag0
(g44
g2
Ntp287
Rp288
(dp289
g48
I42
sg49
I1
sbag0
(g44
g2
Ntp290
Rp291
(dp292
g48
I43
sg49
I1
sbag0
(g44
g2
Ntp293
Rp294
(dp295
g48
I44
sg49
I1
sbag0
(g44
g2
Ntp296
Rp297
(dp298
g48
I45
sg49
I1
sbag0
(g44
g2
Ntp299
Rp300
(dp301
g48
I4
sg49
I2
sbag0
(g44
g2
Ntp302
Rp303
(dp304
g48
I5
sg49
I2
sbag0
(g44
g2
Ntp305
Rp306
(dp307
g48
I6
sg49
I2
sbag0
(g44
g2
Ntp308
Rp309
(dp310
g48
I7
sg49
I2
sbag0
(g44
g2
Ntp311
Rp312
(dp313
g48
I8
sg49
I2
sbag0
(g44
g2
Ntp314
Rp315
(dp316
g48
I9
sg49
I2
sbag0
(g44
g2
Ntp317
Rp318
(dp319
g48
I10
sg49
I2
sbag0
(g44
g2
Ntp320
Rp321
(dp322
g48
I11
sg49
I2
sbag0
(g44
g2
Ntp323
Rp324
(dp325
g48
I12
sg49
I2
sbag0
(g44
g2
Ntp326
Rp327
(dp328
g48
I13
sg49
I2
sbag0
(g44
g2
Ntp329
Rp330
(dp331
g48
I14
sg49
I2
sbag0
(g44
g2
Ntp332
Rp333
(dp334
g48
I15
sg49
I2
sbag0
(g44
g2
Ntp335
Rp336
(dp337
g48
I16
sg49
I2
sbag0
(g44
g2
Ntp338
Rp339
(dp340
g48
I17
sg49
I2
sbag0
(g44
g2
Ntp341
Rp342
(dp343
g48
I18
sg49
I2
sbag0
(g44
g2
Ntp344
Rp345
(dp346
g48
I19
sg49
I2
sbag0
(g44
g2
Ntp347
Rp348
(dp349
g48
I20
sg49
I2
sbag0
(g44
g2
Ntp350
Rp351
(dp352
g48
I21
sg49
I2
sbag0
(g44
g2
Ntp353
Rp354
(dp355
g48
I22
sg49
I2
sbag0
(g44
g2
Ntp356
Rp357
(dp358
g48
I23
sg49
I2
sbag0
(g44
g2
Ntp359
Rp360
(dp361
g48
I24
sg49
I2
sbag0
(g44
g2
Ntp362
Rp363
(dp364
g48
I25
sg49
I2
sbag0
(g44
g2
Ntp365
Rp366
(dp367
g48
I26
sg49
I2
sbag0
(g44
g2
Ntp368
Rp369
(dp370
g48
I27
sg49
I2
sbag0
(g44
g2
Ntp371
Rp372
(dp373
g48
I28
sg49
I2
sbag0
(g44
g2
Ntp374
Rp375
(dp376
g48
I29
sg49
I2
sbag0
(g44
g2
Ntp377
Rp378
(dp379
g48
I30
sg49
I2
sbag0
(g44
g2
Ntp380
Rp381
(dp382
g48
I31
sg49
I2
sbag0
(g44
g2
Ntp383
Rp384
(dp385
g48
I32
sg49
I2
sbag0
(g44
g2
Ntp386
Rp387
(dp388
g48
I33
sg49
I2
sbag0
(g44
g2
Ntp389
Rp390
(dp391
g48
I34
sg49
I2
sbag0
(g44
g2
Ntp392
Rp393
(dp394
g48
I35
sg49
I2
sbag0
(g44
g2
Ntp395
Rp396
(dp397
g48
I36
sg49
I2
sbag0
(g44
g2
Ntp398
Rp399
(dp400
g48
I37
sg49
I2
sbag0
(g44
g2
Ntp401
Rp402
(dp403
g48
I38
sg49
I2
sbag0
(g44
g2
Ntp404
Rp405
(dp406
g48
I39
sg49
I2
sbag0
(g44
g2
Ntp407
Rp408
(dp409
g48
I40
sg49
I2
sbag0
(g44
g2
Ntp410
Rp411
(dp412
g48
I41
sg49
I2
sbag0
(g44
g2
Ntp413
Rp414
(dp415
g48
I42
sg49
I2
sbag0
(g44
g2
Ntp416
Rp417
(dp418
g48
I43
sg49
I2
sbag0
(g44
g2
Ntp419
Rp420
(dp421
g48
I44
sg49
I2
sbag0
(g44
g2
Ntp422
Rp423
(dp424
g48
I45
sg49
I2
sbag0
(g44
g2
Ntp425
Rp426
(dp427
g48
I4
sg49
I3
sbag0
(g44
g2
Ntp428
Rp429
(dp430
g48
I5
sg49
I3
sbag0
(g44
g2
Ntp431
Rp432
(dp433
g48
I6
sg49
I3
sbag0
(g44
g2
Ntp434
Rp435
(dp436
g48
I7
sg49
I3
sbag0
(g44
g2
Ntp437
Rp438
(dp439
g48
I8
sg49
I3
sbag0
(g44
g2
Ntp440
Rp441
(dp442
g48
I9
sg49
I3
sbag0
(g44
g2
Ntp443
Rp444
(dp445
g48
I10
sg49
I3
sbag0
(g44
g2
Ntp446
Rp447
(dp448
g48
I11
sg49
I3
sbag0
(g44
g2
Ntp449
Rp450
(dp451
g48
I12
sg49
I3
sbag0
(g44
g2
Ntp452
Rp453
(dp454
g48
I13
sg49
I3
sbag0
(g44
g2
Ntp455
Rp456
(dp457
g48
I14
sg49
I3
sbag0
(g44
g2
Ntp458
Rp459
(dp460
g48
I15
sg49
I3
sbag0
(g44
g2
Ntp461
Rp462
(dp463
g48
I16
sg49
I3
sbag0
(g44
g2
Ntp464
Rp465
(dp466
g48
I17
sg49
I3
sbag0
(g44
g2
Ntp467
Rp468
(dp469
g48
I18
sg49
I3
sbag0
(g44
g2
Ntp470
Rp471
(dp472
g48
I19
sg49
I3
sbag0
(g44
g2
Ntp473
Rp474
(dp475
g48
I20
sg49
I3
sbag0
(g44
g2
Ntp476
Rp477
(dp478
g48
I21
sg49
I3
sbag0
(g44
g2
Ntp479
Rp480
(dp481
g48
I22
sg49
I3
sbag0
(g44
g2
Ntp482
Rp483
(dp484
g48
I29
sg49
I3
sbag0
(g44
g2
Ntp485
Rp486
(dp487
g48
I30
sg49
I3
sbag0
(g44
g2
Ntp488
Rp489
(dp490
g48
I31
sg49
I3
sbag0
(g44
g2
Ntp491
Rp492
(dp493
g48
I32
sg49
I3
sbag0
(g44
g2
Ntp494
Rp495
(dp496
g48
I33
sg49
I3
sbag0
(g44
g2
Ntp497
Rp498
(dp499
g48
I34
sg49
I3
sbag0
(g44
g2
Ntp500
Rp501
(dp502
g48
I35
sg49
I3
sbag0
(g44
g2
Ntp503
Rp504
(dp505
g48
I36
sg49
I3
sbag0
(g44
g2
Ntp506
Rp507
(dp508
g48
I37
sg49
I3
sbag0
(g44
g2
Ntp509
Rp510
(dp511
g48
I39
sg49
I3
sbag0
(g44
g2
Ntp512
Rp513
(dp514
g48
I40
sg49
I3
sbag0
(g44
g2
Ntp515
Rp516
(dp517
g48
I41
sg49
I3
sbag0
(g44
g2
Ntp518
Rp519
(dp520
g48
I42
sg49
I3
sbag0
(g44
g2
Ntp521
Rp522
(dp523
g48
I43
sg49
I3
sbag0
(g44
g2
Ntp524
Rp525
(dp526
g48
I44
sg49
I3
sbag0
(g44
g2
Ntp527
Rp528
(dp529
g48
I45
sg49
I3
sbag0
(g44
g2
Ntp530
Rp531
(dp532
g48
I46
sg49
I0
sbag0
(g44
g2
Ntp533
Rp534
(dp535
g48
I47
sg49
I0
sbag0
(g44
g2
Ntp536
Rp537
(dp538
g48
I48
sg49
I0
sbag0
(g44
g2
Ntp539
Rp540
(dp541
g48
I49
sg49
I0
sbag0
(g44
g2
Ntp542
Rp543
(dp544
g48
I46
sg49
I1
sbag0
(g44
g2
Ntp545
Rp546
(dp547
g48
I47
sg49
I1
sbag0
(g44
g2
Ntp548
Rp549
(dp550
g48
I48
sg49
I1
sbag0
(g44
g2
Ntp551
Rp552
(dp553
g48
I49
sg49
I1
sbag0
(g44
g2
Ntp554
Rp555
(dp556
g48
I46
sg49
I2
sbag0
(g44
g2
Ntp557
Rp558
(dp559
g48
I47
sg49
I2
sbag0
(g44
g2
Ntp560
Rp561
(dp562
g48
I48
sg49
I2
sbag0
(g44
g2
Ntp563
Rp564
(dp565
g48
I49
sg49
I2
sbag0
(g44
g2
Ntp566
Rp567
(dp568
g48
I46
sg49
I3
sbag0
(g44
g2
Ntp569
Rp570
(dp571
g48
I47
sg49
I3
sbag0
(g44
g2
Ntp572
Rp573
(dp574
g48
I48
sg49
I3
sbag0
(g44
g2
Ntp575
Rp576
(dp577
g48
I49
sg49
I3
sbag0
(g44
g2
Ntp578
Rp579
(dp580
g48
I46
sg49
I4
sbag0
(g44
g2
Ntp581
Rp582
(dp583
g48
I47
sg49
I4
sbag0
(g44
g2
Ntp584
Rp585
(dp586
g48
I48
sg49
I4
sbag0
(g44
g2
Ntp587
Rp588
(dp589
g48
I49
sg49
I4
sbag0
(g44
g2
Ntp590
Rp591
(dp592
g48
I46
sg49
I5
sbag0
(g44
g2
Ntp593
Rp594
(dp595
g48
I47
sg49
I5
sbag0
(g44
g2
Ntp596
Rp597
(dp598
g48
I48
sg49
I5
sbag0
(g44
g2
Ntp599
Rp600
(dp601
g48
I49
sg49
I5
sbag0
(g44
g2
Ntp602
Rp603
(dp604
g48
I46
sg49
I6
sbag0
(g44
g2
Ntp605
Rp606
(dp607
g48
I47
sg49
I6
sbag0
(g44
g2
Ntp608
Rp609
(dp610
g48
I48
sg49
I6
sbag0
(g44
g2
Ntp611
Rp612
(dp613
g48
I49
sg49
I6
sbag0
(g44
g2
Ntp614
Rp615
(dp616
g48
I46
sg49
I7
sbag0
(g44
g2
Ntp617
Rp618
(dp619
g48
I47
sg49
I7
sbag0
(g44
g2
Ntp620
Rp621
(dp622
g48
I48
sg49
I7
sbag0
(g44
g2
Ntp623
Rp624
(dp625
g48
I49
sg49
I7
sbag0
(g44
g2
Ntp626
Rp627
(dp628
g48
I46
sg49
I8
sbag0
(g44
g2
Ntp629
Rp630
(dp631
g48
I47
sg49
I8
sbag0
(g44
g2
Ntp632
Rp633
(dp634
g48
I48
sg49
I8
sbag0
(g44
g2
Ntp635
Rp636
(dp637
g48
I49
sg49
I8
sbag0
(g44
g2
Ntp638
Rp639
(dp640
g48
I46
sg49
I9
sbag0
(g44
g2
Ntp641
Rp642
(dp643
g48
I47
sg49
I9
sbag0
(g44
g2
Ntp644
Rp645
(dp646
g48
I48
sg49
I9
sbag0
(g44
g2
Ntp647
Rp648
(dp649
g48
I49
sg49
I9
sbag0
(g44
g2
Ntp650
Rp651
(dp652
g48
I46
sg49
I10
sbag0
(g44
g2
Ntp653
Rp654
(dp655
g48
I47
sg49
I10
sbag0
(g44
g2
Ntp656
Rp657
(dp658
g48
I48
sg49
I10
sbag0
(g44
g2
Ntp659
Rp660
(dp661
g48
I49
sg49
I10
sbag0
(g44
g2
Ntp662
Rp663
(dp664
g48
I46
sg49
I11
sbag0
(g44
g2
Ntp665
Rp666
(dp667
g48
I47
sg49
I11
sbag0
(g44
g2
Ntp668
Rp669
(dp670
g48
I48
sg49
I11
sbag0
(g44
g2
Ntp671
Rp672
(dp673
g48
I49
sg49
I11
sbag0
(g44
g2
Ntp674
Rp675
(dp676
g48
I46
sg49
I12
sbag0
(g44
g2
Ntp677
Rp678
(dp679
g48
I47
sg49
I12
sbag0
(g44
g2
Ntp680
Rp681
(dp682
g48
I48
sg49
I12
sbag0
(g44
g2
Ntp683
Rp684
(dp685
g48
I49
sg49
I12
sbag0
(g44
g2
Ntp686
Rp687
(dp688
g48
I46
sg49
I13
sbag0
(g44
g2
Ntp689
Rp690
(dp691
g48
I47
sg49
I13
sbag0
(g44
g2
Ntp692
Rp693
(dp694
g48
I48
sg49
I13
sbag0
(g44
g2
Ntp695
Rp696
(dp697
g48
I49
sg49
I13
sbag0
(g44
g2
Ntp698
Rp699
(dp700
g48
I46
sg49
I14
sbag0
(g44
g2
Ntp701
Rp702
(dp703
g48
I47
sg49
I14
sbag0
(g44
g2
Ntp704
Rp705
(dp706
g48
I48
sg49
I14
sbag0
(g44
g2
Ntp707
Rp708
(dp709
g48
I49
sg49
I14
sbag0
(g44
g2
Ntp710
Rp711
(dp712
g48
I46
sg49
I15
sbag0
(g44
g2
Ntp713
Rp714
(dp715
g48
I47
sg49
I15
sbag0
(g44
g2
Ntp716
Rp717
(dp718
g48
I48
sg49
I15
sbag0
(g44
g2
Ntp719
Rp720
(dp721
g48
I49
sg49
I15
sbag0
(g44
g2
Ntp722
Rp723
(dp724
g48
I46
sg49
I16
sbag0
(g44
g2
Ntp725
Rp726
(dp727
g48
I47
sg49
I16
sbag0
(g44
g2
Ntp728
Rp729
(dp730
g48
I48
sg49
I16
sbag0
(g44
g2
Ntp731
Rp732
(dp733
g48
I49
sg49
I16
sbag0
(g44
g2
Ntp734
Rp735
(dp736
g48
I46
sg49
I17
sbag0
(g44
g2
Ntp737
Rp738
(dp739
g48
I47
sg49
I17
sbag0
(g44
g2
Ntp740
Rp741
(dp742
g48
I48
sg49
I17
sbag0
(g44
g2
Ntp743
Rp744
(dp745
g48
I49
sg49
I17
sbag0
(g44
g2
Ntp746
Rp747
(dp748
g48
I46
sg49
I18
sbag0
(g44
g2
Ntp749
Rp750
(dp751
g48
I47
sg49
I18
sbag0
(g44
g2
Ntp752
Rp753
(dp754
g48
I48
sg49
I18
sbag0
(g44
g2
Ntp755
Rp756
(dp757
g48
I49
sg49
I18
sbag0
(g44
g2
Ntp758
Rp759
(dp760
g48
I46
sg49
I19
sbag0
(g44
g2
Ntp761
Rp762
(dp763
g48
I47
sg49
I19
sbag0
(g44
g2
Ntp764
Rp765
(dp766
g48
I48
sg49
I19
sbag0
(g44
g2
Ntp767
Rp768
(dp769
g48
I49
sg49
I19
sbag0
(g44
g2
Ntp770
Rp771
(dp772
g48
I46
sg49
I20
sbag0
(g44
g2
Ntp773
Rp774
(dp775
g48
I47
sg49
I20
sbag0
(g44
g2
Ntp776
Rp777
(dp778
g48
I48
sg49
I20
sbag0
(g44
g2
Ntp779
Rp780
(dp781
g48
I49
sg49
I20
sbag0
(g44
g2
Ntp782
Rp783
(dp784
g48
I46
sg49
I21
sbag0
(g44
g2
Ntp785
Rp786
(dp787
g48
I47
sg49
I21
sbag0
(g44
g2
Ntp788
Rp789
(dp790
g48
I48
sg49
I21
sbag0
(g44
g2
Ntp791
Rp792
(dp793
g48
I49
sg49
I21
sbag0
(g44
g2
Ntp794
Rp795
(dp796
g48
I46
sg49
I22
sbag0
(g44
g2
Ntp797
Rp798
(dp799
g48
I47
sg49
I22
sbag0
(g44
g2
Ntp800
Rp801
(dp802
g48
I48
sg49
I22
sbag0
(g44
g2
Ntp803
Rp804
(dp805
g48
I49
sg49
I22
sbag0
(g44
g2
Ntp806
Rp807
(dp808
g48
I46
sg49
I23
sbag0
(g44
g2
Ntp809
Rp810
(dp811
g48
I47
sg49
I23
sbag0
(g44
g2
Ntp812
Rp813
(dp814
g48
I48
sg49
I23
sbag0
(g44
g2
Ntp815
Rp816
(dp817
g48
I49
sg49
I23
sbag0
(g44
g2
Ntp818
Rp819
(dp820
g48
I46
sg49
I24
sbag0
(g44
g2
Ntp821
Rp822
(dp823
g48
I47
sg49
I24
sbag0
(g44
g2
Ntp824
Rp825
(dp826
g48
I48
sg49
I24
sbag0
(g44
g2
Ntp827
Rp828
(dp829
g48
I49
sg49
I24
sbag0
(g44
g2
Ntp830
Rp831
(dp832
g48
I46
sg49
I25
sbag0
(g44
g2
Ntp833
Rp834
(dp835
g48
I47
sg49
I25
sbag0
(g44
g2
Ntp836
Rp837
(dp838
g48
I48
sg49
I25
sbag0
(g44
g2
Ntp839
Rp840
(dp841
g48
I49
sg49
I25
sbag0
(g44
g2
Ntp842
Rp843
(dp844
g48
I46
sg49
I26
sbag0
(g44
g2
Ntp845
Rp846
(dp847
g48
I47
sg49
I26
sbag0
(g44
g2
Ntp848
Rp849
(dp850
g48
I48
sg49
I26
sbag0
(g44
g2
Ntp851
Rp852
(dp853
g48
I49
sg49
I26
sbag0
(g44
g2
Ntp854
Rp855
(dp856
g48
I46
sg49
I27
sbag0
(g44
g2
Ntp857
Rp858
(dp859
g48
I47
sg49
I27
sbag0
(g44
g2
Ntp860
Rp861
(dp862
g48
I48
sg49
I27
sbag0
(g44
g2
Ntp863
Rp864
(dp865
g48
I49
sg49
I27
sbag0
(g44
g2
Ntp866
Rp867
(dp868
g48
I46
sg49
I28
sbag0
(g44
g2
Ntp869
Rp870
(dp871
g48
I47
sg49
I28
sbag0
(g44
g2
Ntp872
Rp873
(dp874
g48
I48
sg49
I28
sbag0
(g44
g2
Ntp875
Rp876
(dp877
g48
I49
sg49
I28
sbag0
(g44
g2
Ntp878
Rp879
(dp880
g48
I46
sg49
I29
sbag0
(g44
g2
Ntp881
Rp882
(dp883
g48
I47
sg49
I29
sbag0
(g44
g2
Ntp884
Rp885
(dp886
g48
I48
sg49
I29
sbag0
(g44
g2
Ntp887
Rp888
(dp889
g48
I49
sg49
I29
sbag0
(g44
g2
Ntp890
Rp891
(dp892
g48
I46
sg49
I30
sbag0
(g44
g2
Ntp893
Rp894
(dp895
g48
I47
sg49
I30
sbag0
(g44
g2
Ntp896
Rp897
(dp898
g48
I48
sg49
I30
sbag0
(g44
g2
Ntp899
Rp900
(dp901
g48
I49
sg49
I30
sbag0
(g44
g2
Ntp902
Rp903
(dp904
g48
I46
sg49
I31
sbag0
(g44
g2
Ntp905
Rp906
(dp907
g48
I47
sg49
I31
sbag0
(g44
g2
Ntp908
Rp909
(dp910
g48
I48
sg49
I31
sbag0
(g44
g2
Ntp911
Rp912
(dp913
g48
I49
sg49
I31
sbag0
(g44
g2
Ntp914
Rp915
(dp916
g48
I46
sg49
I32
sbag0
(g44
g2
Ntp917
Rp918
(dp919
g48
I47
sg49
I32
sbag0
(g44
g2
Ntp920
Rp921
(dp922
g48
I48
sg49
I32
sbag0
(g44
g2
Ntp923
Rp924
(dp925
g48
I49
sg49
I32
sbag0
(g44
g2
Ntp926
Rp927
(dp928
g48
I46
sg49
I33
sbag0
(g44
g2
Ntp929
Rp930
(dp931
g48
I47
sg49
I33
sbag0
(g44
g2
Ntp932
Rp933
(dp934
g48
I48
sg49
I33
sbag0
(g44
g2
Ntp935
Rp936
(dp937
g48
I49
sg49
I33
sbag0
(g44
g2
Ntp938
Rp939
(dp940
g48
I46
sg49
I34
sbag0
(g44
g2
Ntp941
Rp942
(dp943
g48
I47
sg49
I34
sbag0
(g44
g2
Ntp944
Rp945
(dp946
g48
I48
sg49
I34
sbag0
(g44
g2
Ntp947
Rp948
(dp949
g48
I49
sg49
I34
sbag0
(g44
g2
Ntp950
Rp951
(dp952
g48
I46
sg49
I35
sbag0
(g44
g2
Ntp953
Rp954
(dp955
g48
I47
sg49
I35
sbag0
(g44
g2
Ntp956
Rp957
(dp958
g48
I48
sg49
I35
sbag0
(g44
g2
Ntp959
Rp960
(dp961
g48
I49
sg49
I35
sbag0
(g44
g2
Ntp962
Rp963
(dp964
g48
I46
sg49
I36
sbag0
(g44
g2
Ntp965
Rp966
(dp967
g48
I47
sg49
I36
sbag0
(g44
g2
Ntp968
Rp969
(dp970
g48
I48
sg49
I36
sbag0
(g44
g2
Ntp971
Rp972
(dp973
g48
I49
sg49
I36
sbag0
(g44
g2
Ntp974
Rp975
(dp976
g48
I46
sg49
I37
sbag0
(g44
g2
Ntp977
Rp978
(dp979
g48
I47
sg49
I37
sbag0
(g44
g2
Ntp980
Rp981
(dp982
g48
I48
sg49
I37
sbag0
(g44
g2
Ntp983
Rp984
(dp985
g48
I49
sg49
I37
sbag0
(g44
g2
Ntp986
Rp987
(dp988
g48
I46
sg49
I38
sbag0
(g44
g2
Ntp989
Rp990
(dp991
g48
I47
sg49
I38
sbag0
(g44
g2
Ntp992
Rp993
(dp994
g48
I48
sg49
I38
sbag0
(g44
g2
Ntp995
Rp996
(dp997
g48
I49
sg49
I38
sbag0
(g44
g2
Ntp998
Rp999
(dp1000
g48
I46
sg49
I39
sbag0
(g44
g2
Ntp1001
Rp1002
(dp1003
g48
I47
sg49
I39
sbag0
(g44
g2
Ntp1004
Rp1005
(dp1006
g48
I48
sg49
I39
sbag0
(g44
g2
Ntp1007
Rp1008
(dp1009
g48
I49
sg49
I39
sbag0
(g44
g2
Ntp1010
Rp1011
(dp1012
g48
I46
sg49
I40
sbag0
(g44
g2
Ntp1013
Rp1014
(dp1015
g48
I47
sg49
I40
sbag0
(g44
g2
Ntp1016
Rp1017
(dp1018
g48
I48
sg49
I40
sbag0
(g44
g2
Ntp1019
Rp1020
(dp1021
g48
I49
sg49
I40
sbag0
(g44
g2
Ntp1022
Rp1023
(dp1024
g48
I46
sg49
I41
sbag0
(g44
g2
Ntp1025
Rp1026
(dp1027
g48
I47
sg49
I41
sbag0
(g44
g2
Ntp1028
Rp1029
(dp1030
g48
I48
sg49
I41
sbag0
(g44
g2
Ntp1031
Rp1032
(dp1033
g48
I49
sg49
I41
sbag0
(g44
g2
Ntp1034
Rp1035
(dp1036
g48
I46
sg49
I42
sbag0
(g44
g2
Ntp1037
Rp1038
(dp1039
g48
I47
sg49
I42
sbag0
(g44
g2
Ntp1040
Rp1041
(dp1042
g48
I48
sg49
I42
sbag0
(g44
g2
Ntp1043
Rp1044
(dp1045
g48
I49
sg49
I42
sbag0
(g44
g2
Ntp1046
Rp1047
(dp1048
g48
I46
sg49
I43
sbag0
(g44
g2
Ntp1049
Rp1050
(dp1051
g48
I47
sg49
I43
sbag0
(g44
g2
Ntp1052
Rp1053
(dp1054
g48
I48
sg49
I43
sbag0
(g44
g2
Ntp1055
Rp1056
(dp1057
g48
I49
sg49
I43
sbag0
(g44
g2
Ntp1058
Rp1059
(dp1060
g48
I46
sg49
I44
sbag0
(g44
g2
Ntp1061
Rp1062
(dp1063
g48
I47
sg49
I44
sbag0
(g44
g2
Ntp1064
Rp1065
(dp1066
g48
I48
sg49
I44
sbag0
(g44
g2
Ntp1067
Rp1068
(dp1069
g48
I49
sg49
I44
sbag0
(g44
g2
Ntp1070
Rp1071
(dp1072
g48
I46
sg49
I45
sbag0
(g44
g2
Ntp1073
Rp1074
(dp1075
g48
I47
sg49
I45
sbag0
(g44
g2
Ntp1076
Rp1077
(dp1078
g48
I48
sg49
I45
sbag0
(g44
g2
Ntp1079
Rp1080
(dp1081
g48
I49
sg49
I45
sbag0
(g44
g2
Ntp1082
Rp1083
(dp1084
g48
I46
sg49
I46
sbag0
(g44
g2
Ntp1085
Rp1086
(dp1087
g48
I47
sg49
I46
sbag0
(g44
g2
Ntp1088
Rp1089
(dp1090
g48
I48
sg49
I46
sbag0
(g44
g2
Ntp1091
Rp1092
(dp1093
g48
I49
sg49
I46
sbag0
(g44
g2
Ntp1094
Rp1095
(dp1096
g48
I46
sg49
I47
sbag0
(g44
g2
Ntp1097
Rp1098
(dp1099
g48
I47
sg49
I47
sbag0
(g44
g2
Ntp1100
Rp1101
(dp1102
g48
I48
sg49
I47
sbag0
(g44
g2
Ntp1103
Rp1104
(dp1105
g48
I49
sg49
I47
sbag0
(g44
g2
Ntp1106
Rp1107
(dp1108
g48
I46
sg49
I48
sbag0
(g44
g2
Ntp1109
Rp1110
(dp1111
g48
I47
sg49
I48
sbag0
(g44
g2
Ntp1112
Rp1113
(dp1114
g48
I48
sg49
I48
sbag0
(g44
g2
Ntp1115
Rp1116
(dp1117
g48
I49
sg49
I48
sbag0
(g44
g2
Ntp1118
Rp1119
(dp1120
g48
I46
sg49
I49
sbag0
(g44
g2
Ntp1121
Rp1122
(dp1123
g48
I47
sg49
I49
sbag0
(g44
g2
Ntp1124
Rp1125
(dp1126
g48
I48
sg49
I49
sbag0
(g44
g2
Ntp1127
Rp1128
(dp1129
g48
I49
sg49
I49
sbag0
(g44
g2
Ntp1130
Rp1131
(dp1132
g48
I46
sg49
I50
sbag0
(g44
g2
Ntp1133
Rp1134
(dp1135
g48
I47
sg49
I50
sbag0
(g44
g2
Ntp1136
Rp1137
(dp1138
g48
I48
sg49
I50
sbag0
(g44
g2
Ntp1139
Rp1140
(dp1141
g48
I49
sg49
I50
sbag0
(g44
g2
Ntp1142
Rp1143
(dp1144
g48
I46
sg49
I59
sbag0
(g44
g2
Ntp1145
Rp1146
(dp1147
g48
I47
sg49
I59
sbag0
(g44
g2
Ntp1148
Rp1149
(dp1150
g48
I48
sg49
I59
sbag0
(g44
g2
Ntp1151
Rp1152
(dp1153
g48
I49
sg49
I59
sbag0
(g44
g2
Ntp1154
Rp1155
(dp1156
g48
I46
sg49
I60
sbag0
(g44
g2
Ntp1157
Rp1158
(dp1159
g48
I47
sg49
I60
sbag0
(g44
g2
Ntp1160
Rp1161
(dp1162
g48
I48
sg49
I60
sbag0
(g44
g2
Ntp1163
Rp1164
(dp1165
g48
I49
sg49
I60
sbag0
(g44
g2
Ntp1166
Rp1167
(dp1168
g48
I46
sg49
I61
sbag0
(g44
g2
Ntp1169
Rp1170
(dp1171
g48
I47
sg49
I61
sbag0
(g44
g2
Ntp1172
Rp1173
(dp1174
g48
I48
sg49
I61
sbag0
(g44
g2
Ntp1175
Rp1176
(dp1177
g48
I49
sg49
I61
sbag0
(g44
g2
Ntp1178
Rp1179
(dp1180
g48
I46
sg49
I62
sbag0
(g44
g2
Ntp1181
Rp1182
(dp1183
g48
I47
sg49
I62
sbag0
(g44
g2
Ntp1184
Rp1185
(dp1186
g48
I48
sg49
I62
sbag0
(g44
g2
Ntp1187
Rp1188
(dp1189
g48
I49
sg49
I62
sbag0
(g44
g2
Ntp1190
Rp1191
(dp1192
g48
I46
sg49
I63
sbag0
(g44
g2
Ntp1193
Rp1194
(dp1195
g48
I47
sg49
I63
sbag0
(g44
g2
Ntp1196
Rp1197
(dp1198
g48
I48
sg49
I63
sbag0
(g44
g2
Ntp1199
Rp1200
(dp1201
g48
I49
sg49
I63
sbag0
(g44
g2
Ntp1202
Rp1203
(dp1204
g48
I46
sg49
I64
sbag0
(g44
g2
Ntp1205
Rp1206
(dp1207
g48
I47
sg49
I64
sbag0
(g44
g2
Ntp1208
Rp1209
(dp1210
g48
I48
sg49
I64
sbag0
(g44
g2
Ntp1211
Rp1212
(dp1213
g48
I49
sg49
I64
sbag0
(g44
g2
Ntp1214
Rp1215
(dp1216
g48
I46
sg49
I65
sbag0
(g44
g2
Ntp1217
Rp1218
(dp1219
g48
I47
sg49
I65
sbag0
(g44
g2
Ntp1220
Rp1221
(dp1222
g48
I48
sg49
I65
sbag0
(g44
g2
Ntp1223
Rp1224
(dp1225
g48
I49
sg49
I65
sbag0
(g44
g2
Ntp1226
Rp1227
(dp1228
g48
I46
sg49
I66
sbag0
(g44
g2
Ntp1229
Rp1230
(dp1231
g48
I47
sg49
I66
sbag0
(g44
g2
Ntp1232
Rp1233
(dp1234
g48
I48
sg49
I66
sbag0
(g44
g2
Ntp1235
Rp1236
(dp1237
g48
I49
sg49
I66
sbag0
(g44
g2
Ntp1238
Rp1239
(dp1240
g48
I46
sg49
I67
sbag0
(g44
g2
Ntp1241
Rp1242
(dp1243
g48
I47
sg49
I67
sbag0
(g44
g2
Ntp1244
Rp1245
(dp1246
g48
I48
sg49
I67
sbag0
(g44
g2
Ntp1247
Rp1248
(dp1249
g48
I49
sg49
I67
sbag0
(g44
g2
Ntp1250
Rp1251
(dp1252
g48
I46
sg49
I68
sbag0
(g44
g2
Ntp1253
Rp1254
(dp1255
g48
I47
sg49
I68
sbag0
(g44
g2
Ntp1256
Rp1257
(dp1258
g48
I48
sg49
I68
sbag0
(g44
g2
Ntp1259
Rp1260
(dp1261
g48
I49
sg49
I68
sbag0
(g44
g2
Ntp1262
Rp1263
(dp1264
g48
I46
sg49
I69
sbag0
(g44
g2
Ntp1265
Rp1266
(dp1267
g48
I47
sg49
I69
sbag0
(g44
g2
Ntp1268
Rp1269
(dp1270
g48
I48
sg49
I69
sbag0
(g44
g2
Ntp1271
Rp1272
(dp1273
g48
I49
sg49
I69
sbag0
(g44
g2
Ntp1274
Rp1275
(dp1276
g48
I46
sg49
I70
sbag0
(g44
g2
Ntp1277
Rp1278
(dp1279
g48
I47
sg49
I70
sbag0
(g44
g2
Ntp1280
Rp1281
(dp1282
g48
I48
sg49
I70
sbag0
(g44
g2
Ntp1283
Rp1284
(dp1285
g48
I49
sg49
I70
sbag0
(g44
g2
Ntp1286
Rp1287
(dp1288
g48
I46
sg49
I71
sbag0
(g44
g2
Ntp1289
Rp1290
(dp1291
g48
I47
sg49
I71
sbag0
(g44
g2
Ntp1292
Rp1293
(dp1294
g48
I48
sg49
I71
sbag0
(g44
g2
Ntp1295
Rp1296
(dp1297
g48
I49
sg49
I71
sbag0
(g44
g2
Ntp1298
Rp1299
(dp1300
g48
I46
sg49
I72
sbag0
(g44
g2
Ntp1301
Rp1302
(dp1303
g48
I47
sg49
I72
sbag0
(g44
g2
Ntp1304
Rp1305
(dp1306
g48
I48
sg49
I72
sbag0
(g44
g2
Ntp1307
Rp1308
(dp1309
g48
I49
sg49
I72
sbag0
(g44
g2
Ntp1310
Rp1311
(dp1312
g48
I46
sg49
I73
sbag0
(g44
g2
Ntp1313
Rp1314
(dp1315
g48
I47
sg49
I73
sbag0
(g44
g2
Ntp1316
Rp1317
(dp1318
g48
I48
sg49
I73
sbag0
(g44
g2
Ntp1319
Rp1320
(dp1321
g48
I49
sg49
I73
sbag0
(g44
g2
Ntp1322
Rp1323
(dp1324
g48
I46
sg49
I74
sbag0
(g44
g2
Ntp1325
Rp1326
(dp1327
g48
I47
sg49
I74
sbag0
(g44
g2
Ntp1328
Rp1329
(dp1330
g48
I48
sg49
I74
sbag0
(g44
g2
Ntp1331
Rp1332
(dp1333
g48
I49
sg49
I74
sbag0
(g44
g2
Ntp1334
Rp1335
(dp1336
g48
I29
sg49
I75
sbag0
(g44
g2
Ntp1337
Rp1338
(dp1339
g48
I30
sg49
I75
sbag0
(g44
g2
Ntp1340
Rp1341
(dp1342
g48
I31
sg49
I75
sbag0
(g44
g2
Ntp1343
Rp1344
(dp1345
g48
I32
sg49
I75
sbag0
(g44
g2
Ntp1346
Rp1347
(dp1348
g48
I33
sg49
I75
sbag0
(g44
g2
Ntp1349
Rp1350
(dp1351
g48
I34
sg49
I75
sbag0
(g44
g2
Ntp1352
Rp1353
(dp1354
g48
I35
sg49
I75
sbag0
(g44
g2
Ntp1355
Rp1356
(dp1357
g48
I36
sg49
I75
sbag0
(g44
g2
Ntp1358
Rp1359
(dp1360
g48
I37
sg49
I75
sbag0
(g44
g2
Ntp1361
Rp1362
(dp1363
g48
I38
sg49
I75
sbag0
(g44
g2
Ntp1364
Rp1365
(dp1366
g48
I39
sg49
I75
sbag0
(g44
g2
Ntp1367
Rp1368
(dp1369
g48
I40
sg49
I75
sbag0
(g44
g2
Ntp1370
Rp1371
(dp1372
g48
I41
sg49
I75
sbag0
(g44
g2
Ntp1373
Rp1374
(dp1375
g48
I42
sg49
I75
sbag0
(g44
g2
Ntp1376
Rp1377
(dp1378
g48
I43
sg49
I75
sbag0
(g44
g2
Ntp1379
Rp1380
(dp1381
g48
I44
sg49
I75
sbag0
(g44
g2
Ntp1382
Rp1383
(dp1384
g48
I45
sg49
I75
sbag0
(g44
g2
Ntp1385
Rp1386
(dp1387
g48
I46
sg49
I75
sbag0
(g44
g2
Ntp1388
Rp1389
(dp1390
g48
I47
sg49
I75
sbag0
(g44
g2
Ntp1391
Rp1392
(dp1393
g48
I48
sg49
I75
sbag0
(g44
g2
Ntp1394
Rp1395
(dp1396
g48
I49
sg49
I75
sbag0
(g44
g2
Ntp1397
Rp1398
(dp1399
g48
I29
sg49
I76
sbag0
(g44
g2
Ntp1400
Rp1401
(dp1402
g48
I30
sg49
I76
sbag0
(g44
g2
Ntp1403
Rp1404
(dp1405
g48
I31
sg49
I76
sbag0
(g44
g2
Ntp1406
Rp1407
(dp1408
g48
I32
sg49
I76
sbag0
(g44
g2
Ntp1409
Rp1410
(dp1411
g48
I33
sg49
I76
sbag0
(g44
g2
Ntp1412
Rp1413
(dp1414
g48
I34
sg49
I76
sbag0
(g44
g2
Ntp1415
Rp1416
(dp1417
g48
I35
sg49
I76
sbag0
(g44
g2
Ntp1418
Rp1419
(dp1420
g48
I36
sg49
I76
sbag0
(g44
g2
Ntp1421
Rp1422
(dp1423
g48
I37
sg49
I76
sbag0
(g44
g2
Ntp1424
Rp1425
(dp1426
g48
I38
sg49
I76
sbag0
(g44
g2
Ntp1427
Rp1428
(dp1429
g48
I39
sg49
I76
sbag0
(g44
g2
Ntp1430
Rp1431
(dp1432
g48
I40
sg49
I76
sbag0
(g44
g2
Ntp1433
Rp1434
(dp1435
g48
I41
sg49
I76
sbag0
(g44
g2
Ntp1436
Rp1437
(dp1438
g48
I42
sg49
I76
sbag0
(g44
g2
Ntp1439
Rp1440
(dp1441
g48
I43
sg49
I76
sbag0
(g44
g2
Ntp1442
Rp1443
(dp1444
g48
I44
sg49
I76
sbag0
(g44
g2
Ntp1445
Rp1446
(dp1447
g48
I45
sg49
I76
sbag0
(g44
g2
Ntp1448
Rp1449
(dp1450
g48
I46
sg49
I76
sbag0
(g44
g2
Ntp1451
Rp1452
(dp1453
g48
I47
sg49
I76
sbag0
(g44
g2
Ntp1454
Rp1455
(dp1456
g48
I48
sg49
I76
sbag0
(g44
g2
Ntp1457
Rp1458
(dp1459
g48
I49
sg49
I76
sbag0
(g44
g2
Ntp1460
Rp1461
(dp1462
g48
I29
sg49
I77
sbag0
(g44
g2
Ntp1463
Rp1464
(dp1465
g48
I30
sg49
I77
sbag0
(g44
g2
Ntp1466
Rp1467
(dp1468
g48
I31
sg49
I77
sbag0
(g44
g2
Ntp1469
Rp1470
(dp1471
g48
I32
sg49
I77
sbag0
(g44
g2
Ntp1472
Rp1473
(dp1474
g48
I33
sg49
I77
sbag0
(g44
g2
Ntp1475
Rp1476
(dp1477
g48
I34
sg49
I77
sbag0
(g44
g2
Ntp1478
Rp1479
(dp1480
g48
I35
sg49
I77
sbag0
(g44
g2
Ntp1481
Rp1482
(dp1483
g48
I36
sg49
I77
sbag0
(g44
g2
Ntp1484
Rp1485
(dp1486
g48
I37
sg49
I77
sbag0
(g44
g2
Ntp1487
Rp1488
(dp1489
g48
I38
sg49
I77
sbag0
(g44
g2
Ntp1490
Rp1491
(dp1492
g48
I39
sg49
I77
sbag0
(g44
g2
Ntp1493
Rp1494
(dp1495
g48
I40
sg49
I77
sbag0
(g44
g2
Ntp1496
Rp1497
(dp1498
g48
I41
sg49
I77
sbag0
(g44
g2
Ntp1499
Rp1500
(dp1501
g48
I42
sg49
I77
sbag0
(g44
g2
Ntp1502
Rp1503
(dp1504
g48
I43
sg49
I77
sbag0
(g44
g2
Ntp1505
Rp1506
(dp1507
g48
I44
sg49
I77
sbag0
(g44
g2
Ntp1508
Rp1509
(dp1510
g48
I45
sg49
I77
sbag0
(g44
g2
Ntp1511
Rp1512
(dp1513
g48
I46
sg49
I77
sbag0
(g44
g2
Ntp1514
Rp1515
(dp1516
g48
I47
sg49
I77
sbag0
(g44
g2
Ntp1517
Rp1518
(dp1519
g48
I48
sg49
I77
sbag0
(g44
g2
Ntp1520
Rp1521
(dp1522
g48
I49
sg49
I77
sbag0
(g44
g2
Ntp1523
Rp1524
(dp1525
g48
I28
sg49
I78
sbag0
(g44
g2
Ntp1526
Rp1527
(dp1528
g48
I29
sg49
I78
sbag0
(g44
g2
Ntp1529
Rp1530
(dp1531
g48
I30
sg49
I78
sbag0
(g44
g2
Ntp1532
Rp1533
(dp1534
g48
I31
sg49
I78
sbag0
(g44
g2
Ntp1535
Rp1536
(dp1537
g48
I32
sg49
I78
sbag0
(g44
g2
Ntp1538
Rp1539
(dp1540
g48
I33
sg49
I78
sbag0
(g44
g2
Ntp1541
Rp1542
(dp1543
g48
I34
sg49
I78
sbag0
(g44
g2
Ntp1544
Rp1545
(dp1546
g48
I35
sg49
I78
sbag0
(g44
g2
Ntp1547
Rp1548
(dp1549
g48
I36
sg49
I78
sbag0
(g44
g2
Ntp1550
Rp1551
(dp1552
g48
I37
sg49
I78
sbag0
(g44
g2
Ntp1553
Rp1554
(dp1555
g48
I38
sg49
I78
sbag0
(g44
g2
Ntp1556
Rp1557
(dp1558
g48
I39
sg49
I78
sbag0
(g44
g2
Ntp1559
Rp1560
(dp1561
g48
I40
sg49
I78
sbag0
(g44
g2
Ntp1562
Rp1563
(dp1564
g48
I41
sg49
I78
sbag0
(g44
g2
Ntp1565
Rp1566
(dp1567
g48
I42
sg49
I78
sbag0
(g44
g2
Ntp1568
Rp1569
(dp1570
g48
I43
sg49
I78
sbag0
(g44
g2
Ntp1571
Rp1572
(dp1573
g48
I44
sg49
I78
sbag0
(g44
g2
Ntp1574
Rp1575
(dp1576
g48
I45
sg49
I78
sbag0
(g44
g2
Ntp1577
Rp1578
(dp1579
g48
I46
sg49
I78
sbag0
(g44
g2
Ntp1580
Rp1581
(dp1582
g48
I47
sg49
I78
sbag0
(g44
g2
Ntp1583
Rp1584
(dp1585
g48
I48
sg49
I78
sbag0
(g44
g2
Ntp1586
Rp1587
(dp1588
g48
I49
sg49
I78
sbag0
(g44
g2
Ntp1589
Rp1590
(dp1591
g48
I28
sg49
I79
sbag0
(g44
g2
Ntp1592
Rp1593
(dp1594
g48
I29
sg49
I79
sbag0
(g44
g2
Ntp1595
Rp1596
(dp1597
g48
I30
sg49
I79
sbag0
(g44
g2
Ntp1598
Rp1599
(dp1600
g48
I31
sg49
I79
sbag0
(g44
g2
Ntp1601
Rp1602
(dp1603
g48
I32
sg49
I79
sbag0
(g44
g2
Ntp1604
Rp1605
(dp1606
g48
I33
sg49
I79
sbag0
(g44
g2
Ntp1607
Rp1608
(dp1609
g48
I34
sg49
I79
sbag0
(g44
g2
Ntp1610
Rp1611
(dp1612
g48
I35
sg49
I79
sbag0
(g44
g2
Ntp1613
Rp1614
(dp1615
g48
I36
sg49
I79
sbag0
(g44
g2
Ntp1616
Rp1617
(dp1618
g48
I37
sg49
I79
sbag0
(g44
g2
Ntp1619
Rp1620
(dp1621
g48
I38
sg49
I79
sbag0
(g44
g2
Ntp1622
Rp1623
(dp1624
g48
I39
sg49
I79
sbag0
(g44
g2
Ntp1625
Rp1626
(dp1627
g48
I40
sg49
I79
sbag0
(g44
g2
Ntp1628
Rp1629
(dp1630
g48
I41
sg49
I79
sbag0
(g44
g2
Ntp1631
Rp1632
(dp1633
g48
I42
sg49
I79
sbag0
(g44
g2
Ntp1634
Rp1635
(dp1636
g48
I43
sg49
I79
sbag0
(g44
g2
Ntp1637
Rp1638
(dp1639
g48
I44
sg49
I79
sbag0
(g44
g2
Ntp1640
Rp1641
(dp1642
g48
I45
sg49
I79
sbag0
(g44
g2
Ntp1643
Rp1644
(dp1645
g48
I46
sg49
I79
sbag0
(g44
g2
Ntp1646
Rp1647
(dp1648
g48
I47
sg49
I79
sbag0
(g44
g2
Ntp1649
Rp1650
(dp1651
g48
I48
sg49
I79
sbag0
(g44
g2
Ntp1652
Rp1653
(dp1654
g48
I49
sg49
I79
sbag0
(g44
g2
Ntp1655
Rp1656
(dp1657
g48
I27
sg49
I71
sbag0
(g44
g2
Ntp1658
Rp1659
(dp1660
g48
I28
sg49
I71
sbag0
(g44
g2
Ntp1661
Rp1662
(dp1663
g48
I27
sg49
I72
sbag0
(g44
g2
Ntp1664
Rp1665
(dp1666
g48
I28
sg49
I72
sbag0
(g44
g2
Ntp1667
Rp1668
(dp1669
g48
I27
sg49
I73
sbag0
(g44
g2
Ntp1670
Rp1671
(dp1672
g48
I28
sg49
I73
sbag0
(g44
g2
Ntp1673
Rp1674
(dp1675
g48
I27
sg49
I74
sbag0
(g44
g2
Ntp1676
Rp1677
(dp1678
g48
I28
sg49
I74
sbag0
(g44
g2
Ntp1679
Rp1680
(dp1681
g48
I27
sg49
I75
sbag0
(g44
g2
Ntp1682
Rp1683
(dp1684
g48
I28
sg49
I75
sbag0
(g44
g2
Ntp1685
Rp1686
(dp1687
g48
I27
sg49
I76
sbag0
(g44
g2
Ntp1688
Rp1689
(dp1690
g48
I28
sg49
I76
sbag0
(g44
g2
Ntp1691
Rp1692
(dp1693
g48
I27
sg49
I77
sbag0
(g44
g2
Ntp1694
Rp1695
(dp1696
g48
I28
sg49
I77
sbag0
(g44
g2
Ntp1697
Rp1698
(dp1699
g48
I22
sg49
I71
sbag0
(g44
g2
Ntp1700
Rp1701
(dp1702
g48
I23
sg49
I71
sbag0
(g44
g2
Ntp1703
Rp1704
(dp1705
g48
I22
sg49
I72
sbag0
(g44
g2
Ntp1706
Rp1707
(dp1708
g48
I23
sg49
I72
sbag0
(g44
g2
Ntp1709
Rp1710
(dp1711
g48
I22
sg49
I73
sbag0
(g44
g2
Ntp1712
Rp1713
(dp1714
g48
I23
sg49
I73
sbag0
(g44
g2
Ntp1715
Rp1716
(dp1717
g48
I22
sg49
I74
sbag0
(g44
g2
Ntp1718
Rp1719
(dp1720
g48
I23
sg49
I74
sbag0
(g44
g2
Ntp1721
Rp1722
(dp1723
g48
I23
sg49
I75
sbag0
(g44
g2
Ntp1724
Rp1725
(dp1726
g48
I23
sg49
I76
sbag0
(g44
g2
Ntp1727
Rp1728
(dp1729
g48
I23
sg49
I77
sbag0
(g44
g2
Ntp1730
Rp1731
(dp1732
g48
I4
sg49
I75
sbag0
(g44
g2
Ntp1733
Rp1734
(dp1735
g48
I5
sg49
I75
sbag0
(g44
g2
Ntp1736
Rp1737
(dp1738
g48
I6
sg49
I75
sbag0
(g44
g2
Ntp1739
Rp1740
(dp1741
g48
I7
sg49
I75
sbag0
(g44
g2
Ntp1742
Rp1743
(dp1744
g48
I8
sg49
I75
sbag0
(g44
g2
Ntp1745
Rp1746
(dp1747
g48
I9
sg49
I75
sbag0
(g44
g2
Ntp1748
Rp1749
(dp1750
g48
I10
sg49
I75
sbag0
(g44
g2
Ntp1751
Rp1752
(dp1753
g48
I11
sg49
I75
sbag0
(g44
g2
Ntp1754
Rp1755
(dp1756
g48
I12
sg49
I75
sbag0
(g44
g2
Ntp1757
Rp1758
(dp1759
g48
I13
sg49
I75
sbag0
(g44
g2
Ntp1760
Rp1761
(dp1762
g48
I14
sg49
I75
sbag0
(g44
g2
Ntp1763
Rp1764
(dp1765
g48
I15
sg49
I75
sbag0
(g44
g2
Ntp1766
Rp1767
(dp1768
g48
I16
sg49
I75
sbag0
(g44
g2
Ntp1769
Rp1770
(dp1771
g48
I17
sg49
I75
sbag0
(g44
g2
Ntp1772
Rp1773
(dp1774
g48
I18
sg49
I75
sbag0
(g44
g2
Ntp1775
Rp1776
(dp1777
g48
I19
sg49
I75
sbag0
(g44
g2
Ntp1778
Rp1779
(dp1780
g48
I20
sg49
I75
sbag0
(g44
g2
Ntp1781
Rp1782
(dp1783
g48
I21
sg49
I75
sbag0
(g44
g2
Ntp1784
Rp1785
(dp1786
g48
I22
sg49
I75
sbag0
(g44
g2
Ntp1787
Rp1788
(dp1789
g48
I4
sg49
I76
sbag0
(g44
g2
Ntp1790
Rp1791
(dp1792
g48
I5
sg49
I76
sbag0
(g44
g2
Ntp1793
Rp1794
(dp1795
g48
I6
sg49
I76
sbag0
(g44
g2
Ntp1796
Rp1797
(dp1798
g48
I7
sg49
I76
sbag0
(g44
g2
Ntp1799
Rp1800
(dp1801
g48
I8
sg49
I76
sbag0
(g44
g2
Ntp1802
Rp1803
(dp1804
g48
I9
sg49
I76
sbag0
(g44
g2
Ntp1805
Rp1806
(dp1807
g48
I10
sg49
I76
sbag0
(g44
g2
Ntp1808
Rp1809
(dp1810
g48
I11
sg49
I76
sbag0
(g44
g2
Ntp1811
Rp1812
(dp1813
g48
I12
sg49
I76
sbag0
(g44
g2
Ntp1814
Rp1815
(dp1816
g48
I13
sg49
I76
sbag0
(g44
g2
Ntp1817
Rp1818
(dp1819
g48
I14
sg49
I76
sbag0
(g44
g2
Ntp1820
Rp1821
(dp1822
g48
I15
sg49
I76
sbag0
(g44
g2
Ntp1823
Rp1824
(dp1825
g48
I16
sg49
I76
sbag0
(g44
g2
Ntp1826
Rp1827
(dp1828
g48
I17
sg49
I76
sbag0
(g44
g2
Ntp1829
Rp1830
(dp1831
g48
I18
sg49
I76
sbag0
(g44
g2
Ntp1832
Rp1833
(dp1834
g48
I19
sg49
I76
sbag0
(g44
g2
Ntp1835
Rp1836
(dp1837
g48
I20
sg49
I76
sbag0
(g44
g2
Ntp1838
Rp1839
(dp1840
g48
I21
sg49
I76
sbag0
(g44
g2
Ntp1841
Rp1842
(dp1843
g48
I22
sg49
I76
sbag0
(g44
g2
Ntp1844
Rp1845
(dp1846
g48
I4
sg49
I77
sbag0
(g44
g2
Ntp1847
Rp1848
(dp1849
g48
I5
sg49
I77
sbag0
(g44
g2
Ntp1850
Rp1851
(dp1852
g48
I6
sg49
I77
sbag0
(g44
g2
Ntp1853
Rp1854
(dp1855
g48
I7
sg49
I77
sbag0
(g44
g2
Ntp1856
Rp1857
(dp1858
g48
I8
sg49
I77
sbag0
(g44
g2
Ntp1859
Rp1860
(dp1861
g48
I9
sg49
I77
sbag0
(g44
g2
Ntp1862
Rp1863
(dp1864
g48
I10
sg49
I77
sbag0
(g44
g2
Ntp1865
Rp1866
(dp1867
g48
I11
sg49
I77
sbag0
(g44
g2
Ntp1868
Rp1869
(dp1870
g48
I12
sg49
I77
sbag0
(g44
g2
Ntp1871
Rp1872
(dp1873
g48
I13
sg49
I77
sbag0
(g44
g2
Ntp1874
Rp1875
(dp1876
g48
I14
sg49
I77
sbag0
(g44
g2
Ntp1877
Rp1878
(dp1879
g48
I15
sg49
I77
sbag0
(g44
g2
Ntp1880
Rp1881
(dp1882
g48
I16
sg49
I77
sbag0
(g44
g2
Ntp1883
Rp1884
(dp1885
g48
I17
sg49
I77
sbag0
(g44
g2
Ntp1886
Rp1887
(dp1888
g48
I18
sg49
I77
sbag0
(g44
g2
Ntp1889
Rp1890
(dp1891
g48
I19
sg49
I77
sbag0
(g44
g2
Ntp1892
Rp1893
(dp1894
g48
I20
sg49
I77
sbag0
(g44
g2
Ntp1895
Rp1896
(dp1897
g48
I21
sg49
I77
sbag0
(g44
g2
Ntp1898
Rp1899
(dp1900
g48
I22
sg49
I77
sbag0
(g44
g2
Ntp1901
Rp1902
(dp1903
g48
I4
sg49
I78
sbag0
(g44
g2
Ntp1904
Rp1905
(dp1906
g48
I5
sg49
I78
sbag0
(g44
g2
Ntp1907
Rp1908
(dp1909
g48
I6
sg49
I78
sbag0
(g44
g2
Ntp1910
Rp1911
(dp1912
g48
I7
sg49
I78
sbag0
(g44
g2
Ntp1913
Rp1914
(dp1915
g48
I8
sg49
I78
sbag0
(g44
g2
Ntp1916
Rp1917
(dp1918
g48
I9
sg49
I78
sbag0
(g44
g2
Ntp1919
Rp1920
(dp1921
g48
I10
sg49
I78
sbag0
(g44
g2
Ntp1922
Rp1923
(dp1924
g48
I11
sg49
I78
sbag0
(g44
g2
Ntp1925
Rp1926
(dp1927
g48
I12
sg49
I78
sbag0
(g44
g2
Ntp1928
Rp1929
(dp1930
g48
I13
sg49
I78
sbag0
(g44
g2
Ntp1931
Rp1932
(dp1933
g48
I14
sg49
I78
sbag0
(g44
g2
Ntp1934
Rp1935
(dp1936
g48
I15
sg49
I78
sbag0
(g44
g2
Ntp1937
Rp1938
(dp1939
g48
I16
sg49
I78
sbag0
(g44
g2
Ntp1940
Rp1941
(dp1942
g48
I17
sg49
I78
sbag0
(g44
g2
Ntp1943
Rp1944
(dp1945
g48
I18
sg49
I78
sbag0
(g44
g2
Ntp1946
Rp1947
(dp1948
g48
I19
sg49
I78
sbag0
(g44
g2
Ntp1949
Rp1950
(dp1951
g48
I20
sg49
I78
sbag0
(g44
g2
Ntp1952
Rp1953
(dp1954
g48
I21
sg49
I78
sbag0
(g44
g2
Ntp1955
Rp1956
(dp1957
g48
I22
sg49
I78
sbag0
(g44
g2
Ntp1958
Rp1959
(dp1960
g48
I4
sg49
I79
sbag0
(g44
g2
Ntp1961
Rp1962
(dp1963
g48
I5
sg49
I79
sbag0
(g44
g2
Ntp1964
Rp1965
(dp1966
g48
I6
sg49
I79
sbag0
(g44
g2
Ntp1967
Rp1968
(dp1969
g48
I7
sg49
I79
sbag0
(g44
g2
Ntp1970
Rp1971
(dp1972
g48
I8
sg49
I79
sbag0
(g44
g2
Ntp1973
Rp1974
(dp1975
g48
I9
sg49
I79
sbag0
(g44
g2
Ntp1976
Rp1977
(dp1978
g48
I10
sg49
I79
sbag0
(g44
g2
Ntp1979
Rp1980
(dp1981
g48
I11
sg49
I79
sbag0
(g44
g2
Ntp1982
Rp1983
(dp1984
g48
I12
sg49
I79
sbag0
(g44
g2
Ntp1985
Rp1986
(dp1987
g48
I13
sg49
I79
sbag0
(g44
g2
Ntp1988
Rp1989
(dp1990
g48
I14
sg49
I79
sbag0
(g44
g2
Ntp1991
Rp1992
(dp1993
g48
I15
sg49
I79
sbag0
(g44
g2
Ntp1994
Rp1995
(dp1996
g48
I16
sg49
I79
sbag0
(g44
g2
Ntp1997
Rp1998
(dp1999
g48
I17
sg49
I79
sbag0
(g44
g2
Ntp2000
Rp2001
(dp2002
g48
I18
sg49
I79
sbag0
(g44
g2
Ntp2003
Rp2004
(dp2005
g48
I19
sg49
I79
sbag0
(g44
g2
Ntp2006
Rp2007
(dp2008
g48
I20
sg49
I79
sbag0
(g44
g2
Ntp2009
Rp2010
(dp2011
g48
I21
sg49
I79
sbag0
(g44
g2
Ntp2012
Rp2013
(dp2014
g48
I22
sg49
I79
sbag0
(g44
g2
Ntp2015
Rp2016
(dp2017
g48
I0
sg49
I0
sbag0
(g44
g2
Ntp2018
Rp2019
(dp2020
g48
I1
sg49
I0
sbag0
(g44
g2
Ntp2021
Rp2022
(dp2023
g48
I2
sg49
I0
sbag0
(g44
g2
Ntp2024
Rp2025
(dp2026
g48
I3
sg49
I0
sbag0
(g44
g2
Ntp2027
Rp2028
(dp2029
g48
I0
sg49
I1
sbag0
(g44
g2
Ntp2030
Rp2031
(dp2032
g48
I1
sg49
I1
sbag0
(g44
g2
Ntp2033
Rp2034
(dp2035
g48
I2
sg49
I1
sbag0
(g44
g2
Ntp2036
Rp2037
(dp2038
g48
I3
sg49
I1
sbag0
(g44
g2
Ntp2039
Rp2040
(dp2041
g48
I0
sg49
I2
sbag0
(g44
g2
Ntp2042
Rp2043
(dp2044
g48
I1
sg49
I2
sbag0
(g44
g2
Ntp2045
Rp2046
(dp2047
g48
I2
sg49
I2
sbag0
(g44
g2
Ntp2048
Rp2049
(dp2050
g48
I3
sg49
I2
sbag0
(g44
g2
Ntp2051
Rp2052
(dp2053
g48
I0
sg49
I3
sbag0
(g44
g2
Ntp2054
Rp2055
(dp2056
g48
I1
sg49
I3
sbag0
(g44
g2
Ntp2057
Rp2058
(dp2059
g48
I2
sg49
I3
sbag0
(g44
g2
Ntp2060
Rp2061
(dp2062
g48
I3
sg49
I3
sbag0
(g44
g2
Ntp2063
Rp2064
(dp2065
g48
I0
sg49
I4
sbag0
(g44
g2
Ntp2066
Rp2067
(dp2068
g48
I1
sg49
I4
sbag0
(g44
g2
Ntp2069
Rp2070
(dp2071
g48
I2
sg49
I4
sbag0
(g44
g2
Ntp2072
Rp2073
(dp2074
g48
I3
sg49
I4
sbag0
(g44
g2
Ntp2075
Rp2076
(dp2077
g48
I0
sg49
I5
sbag0
(g44
g2
Ntp2078
Rp2079
(dp2080
g48
I1
sg49
I5
sbag0
(g44
g2
Ntp2081
Rp2082
(dp2083
g48
I2
sg49
I5
sbag0
(g44
g2
Ntp2084
Rp2085
(dp2086
g48
I3
sg49
I5
sbag0
(g44
g2
Ntp2087
Rp2088
(dp2089
g48
I0
sg49
I6
sbag0
(g44
g2
Ntp2090
Rp2091
(dp2092
g48
I1
sg49
I6
sbag0
(g44
g2
Ntp2093
Rp2094
(dp2095
g48
I2
sg49
I6
sbag0
(g44
g2
Ntp2096
Rp2097
(dp2098
g48
I3
sg49
I6
sbag0
(g44
g2
Ntp2099
Rp2100
(dp2101
g48
I0
sg49
I7
sbag0
(g44
g2
Ntp2102
Rp2103
(dp2104
g48
I1
sg49
I7
sbag0
(g44
g2
Ntp2105
Rp2106
(dp2107
g48
I2
sg49
I7
sbag0
(g44
g2
Ntp2108
Rp2109
(dp2110
g48
I3
sg49
I7
sbag0
(g44
g2
Ntp2111
Rp2112
(dp2113
g48
I0
sg49
I8
sbag0
(g44
g2
Ntp2114
Rp2115
(dp2116
g48
I1
sg49
I8
sbag0
(g44
g2
Ntp2117
Rp2118
(dp2119
g48
I2
sg49
I8
sbag0
(g44
g2
Ntp2120
Rp2121
(dp2122
g48
I3
sg49
I8
sbag0
(g44
g2
Ntp2123
Rp2124
(dp2125
g48
I0
sg49
I9
sbag0
(g44
g2
Ntp2126
Rp2127
(dp2128
g48
I1
sg49
I9
sbag0
(g44
g2
Ntp2129
Rp2130
(dp2131
g48
I2
sg49
I9
sbag0
(g44
g2
Ntp2132
Rp2133
(dp2134
g48
I3
sg49
I9
sbag0
(g44
g2
Ntp2135
Rp2136
(dp2137
g48
I0
sg49
I10
sbag0
(g44
g2
Ntp2138
Rp2139
(dp2140
g48
I1
sg49
I10
sbag0
(g44
g2
Ntp2141
Rp2142
(dp2143
g48
I2
sg49
I10
sbag0
(g44
g2
Ntp2144
Rp2145
(dp2146
g48
I3
sg49
I10
sbag0
(g44
g2
Ntp2147
Rp2148
(dp2149
g48
I0
sg49
I11
sbag0
(g44
g2
Ntp2150
Rp2151
(dp2152
g48
I1
sg49
I11
sbag0
(g44
g2
Ntp2153
Rp2154
(dp2155
g48
I2
sg49
I11
sbag0
(g44
g2
Ntp2156
Rp2157
(dp2158
g48
I3
sg49
I11
sbag0
(g44
g2
Ntp2159
Rp2160
(dp2161
g48
I0
sg49
I12
sbag0
(g44
g2
Ntp2162
Rp2163
(dp2164
g48
I1
sg49
I12
sbag0
(g44
g2
Ntp2165
Rp2166
(dp2167
g48
I2
sg49
I12
sbag0
(g44
g2
Ntp2168
Rp2169
(dp2170
g48
I3
sg49
I12
sbag0
(g44
g2
Ntp2171
Rp2172
(dp2173
g48
I0
sg49
I13
sbag0
(g44
g2
Ntp2174
Rp2175
(dp2176
g48
I1
sg49
I13
sbag0
(g44
g2
Ntp2177
Rp2178
(dp2179
g48
I2
sg49
I13
sbag0
(g44
g2
Ntp2180
Rp2181
(dp2182
g48
I3
sg49
I13
sbag0
(g44
g2
Ntp2183
Rp2184
(dp2185
g48
I0
sg49
I14
sbag0
(g44
g2
Ntp2186
Rp2187
(dp2188
g48
I1
sg49
I14
sbag0
(g44
g2
Ntp2189
Rp2190
(dp2191
g48
I2
sg49
I14
sbag0
(g44
g2
Ntp2192
Rp2193
(dp2194
g48
I3
sg49
I14
sbag0
(g44
g2
Ntp2195
Rp2196
(dp2197
g48
I0
sg49
I15
sbag0
(g44
g2
Ntp2198
Rp2199
(dp2200
g48
I1
sg49
I15
sbag0
(g44
g2
Ntp2201
Rp2202
(dp2203
g48
I2
sg49
I15
sbag0
(g44
g2
Ntp2204
Rp2205
(dp2206
g48
I3
sg49
I15
sbag0
(g44
g2
Ntp2207
Rp2208
(dp2209
g48
I0
sg49
I16
sbag0
(g44
g2
Ntp2210
Rp2211
(dp2212
g48
I1
sg49
I16
sbag0
(g44
g2
Ntp2213
Rp2214
(dp2215
g48
I2
sg49
I16
sbag0
(g44
g2
Ntp2216
Rp2217
(dp2218
g48
I3
sg49
I16
sbag0
(g44
g2
Ntp2219
Rp2220
(dp2221
g48
I0
sg49
I17
sbag0
(g44
g2
Ntp2222
Rp2223
(dp2224
g48
I1
sg49
I17
sbag0
(g44
g2
Ntp2225
Rp2226
(dp2227
g48
I2
sg49
I17
sbag0
(g44
g2
Ntp2228
Rp2229
(dp2230
g48
I3
sg49
I17
sbag0
(g44
g2
Ntp2231
Rp2232
(dp2233
g48
I0
sg49
I18
sbag0
(g44
g2
Ntp2234
Rp2235
(dp2236
g48
I1
sg49
I18
sbag0
(g44
g2
Ntp2237
Rp2238
(dp2239
g48
I2
sg49
I18
sbag0
(g44
g2
Ntp2240
Rp2241
(dp2242
g48
I3
sg49
I18
sbag0
(g44
g2
Ntp2243
Rp2244
(dp2245
g48
I0
sg49
I19
sbag0
(g44
g2
Ntp2246
Rp2247
(dp2248
g48
I1
sg49
I19
sbag0
(g44
g2
Ntp2249
Rp2250
(dp2251
g48
I2
sg49
I19
sbag0
(g44
g2
Ntp2252
Rp2253
(dp2254
g48
I3
sg49
I19
sbag0
(g44
g2
Ntp2255
Rp2256
(dp2257
g48
I0
sg49
I20
sbag0
(g44
g2
Ntp2258
Rp2259
(dp2260
g48
I1
sg49
I20
sbag0
(g44
g2
Ntp2261
Rp2262
(dp2263
g48
I2
sg49
I20
sbag0
(g44
g2
Ntp2264
Rp2265
(dp2266
g48
I3
sg49
I20
sbag0
(g44
g2
Ntp2267
Rp2268
(dp2269
g48
I0
sg49
I21
sbag0
(g44
g2
Ntp2270
Rp2271
(dp2272
g48
I1
sg49
I21
sbag0
(g44
g2
Ntp2273
Rp2274
(dp2275
g48
I2
sg49
I21
sbag0
(g44
g2
Ntp2276
Rp2277
(dp2278
g48
I3
sg49
I21
sbag0
(g44
g2
Ntp2279
Rp2280
(dp2281
g48
I0
sg49
I22
sbag0
(g44
g2
Ntp2282
Rp2283
(dp2284
g48
I1
sg49
I22
sbag0
(g44
g2
Ntp2285
Rp2286
(dp2287
g48
I2
sg49
I22
sbag0
(g44
g2
Ntp2288
Rp2289
(dp2290
g48
I3
sg49
I22
sbag0
(g44
g2
Ntp2291
Rp2292
(dp2293
g48
I0
sg49
I23
sbag0
(g44
g2
Ntp2294
Rp2295
(dp2296
g48
I1
sg49
I23
sbag0
(g44
g2
Ntp2297
Rp2298
(dp2299
g48
I2
sg49
I23
sbag0
(g44
g2
Ntp2300
Rp2301
(dp2302
g48
I0
sg49
I24
sbag0
(g44
g2
Ntp2303
Rp2304
(dp2305
g48
I1
sg49
I24
sbag0
(g44
g2
Ntp2306
Rp2307
(dp2308
g48
I2
sg49
I24
sbag0
(g44
g2
Ntp2309
Rp2310
(dp2311
g48
I0
sg49
I25
sbag0
(g44
g2
Ntp2312
Rp2313
(dp2314
g48
I1
sg49
I25
sbag0
(g44
g2
Ntp2315
Rp2316
(dp2317
g48
I2
sg49
I25
sbag0
(g44
g2
Ntp2318
Rp2319
(dp2320
g48
I0
sg49
I26
sbag0
(g44
g2
Ntp2321
Rp2322
(dp2323
g48
I1
sg49
I26
sbag0
(g44
g2
Ntp2324
Rp2325
(dp2326
g48
I2
sg49
I26
sbag0
(g44
g2
Ntp2327
Rp2328
(dp2329
g48
I0
sg49
I27
sbag0
(g44
g2
Ntp2330
Rp2331
(dp2332
g48
I1
sg49
I27
sbag0
(g44
g2
Ntp2333
Rp2334
(dp2335
g48
I2
sg49
I27
sbag0
(g44
g2
Ntp2336
Rp2337
(dp2338
g48
I0
sg49
I28
sbag0
(g44
g2
Ntp2339
Rp2340
(dp2341
g48
I1
sg49
I28
sbag0
(g44
g2
Ntp2342
Rp2343
(dp2344
g48
I2
sg49
I28
sbag0
(g44
g2
Ntp2345
Rp2346
(dp2347
g48
I3
sg49
I28
sbag0
(g44
g2
Ntp2348
Rp2349
(dp2350
g48
I0
sg49
I29
sbag0
(g44
g2
Ntp2351
Rp2352
(dp2353
g48
I1
sg49
I29
sbag0
(g44
g2
Ntp2354
Rp2355
(dp2356
g48
I2
sg49
I29
sbag0
(g44
g2
Ntp2357
Rp2358
(dp2359
g48
I3
sg49
I29
sbag0
(g44
g2
Ntp2360
Rp2361
(dp2362
g48
I0
sg49
I30
sbag0
(g44
g2
Ntp2363
Rp2364
(dp2365
g48
I1
sg49
I30
sbag0
(g44
g2
Ntp2366
Rp2367
(dp2368
g48
I2
sg49
I30
sbag0
(g44
g2
Ntp2369
Rp2370
(dp2371
g48
I3
sg49
I30
sbag0
(g44
g2
Ntp2372
Rp2373
(dp2374
g48
I0
sg49
I31
sbag0
(g44
g2
Ntp2375
Rp2376
(dp2377
g48
I1
sg49
I31
sbag0
(g44
g2
Ntp2378
Rp2379
(dp2380
g48
I2
sg49
I31
sbag0
(g44
g2
Ntp2381
Rp2382
(dp2383
g48
I3
sg49
I31
sbag0
(g44
g2
Ntp2384
Rp2385
(dp2386
g48
I0
sg49
I32
sbag0
(g44
g2
Ntp2387
Rp2388
(dp2389
g48
I1
sg49
I32
sbag0
(g44
g2
Ntp2390
Rp2391
(dp2392
g48
I2
sg49
I32
sbag0
(g44
g2
Ntp2393
Rp2394
(dp2395
g48
I3
sg49
I32
sbag0
(g44
g2
Ntp2396
Rp2397
(dp2398
g48
I0
sg49
I33
sbag0
(g44
g2
Ntp2399
Rp2400
(dp2401
g48
I1
sg49
I33
sbag0
(g44
g2
Ntp2402
Rp2403
(dp2404
g48
I2
sg49
I33
sbag0
(g44
g2
Ntp2405
Rp2406
(dp2407
g48
I3
sg49
I33
sbag0
(g44
g2
Ntp2408
Rp2409
(dp2410
g48
I0
sg49
I34
sbag0
(g44
g2
Ntp2411
Rp2412
(dp2413
g48
I1
sg49
I34
sbag0
(g44
g2
Ntp2414
Rp2415
(dp2416
g48
I2
sg49
I34
sbag0
(g44
g2
Ntp2417
Rp2418
(dp2419
g48
I3
sg49
I34
sbag0
(g44
g2
Ntp2420
Rp2421
(dp2422
g48
I0
sg49
I35
sbag0
(g44
g2
Ntp2423
Rp2424
(dp2425
g48
I1
sg49
I35
sbag0
(g44
g2
Ntp2426
Rp2427
(dp2428
g48
I2
sg49
I35
sbag0
(g44
g2
Ntp2429
Rp2430
(dp2431
g48
I3
sg49
I35
sbag0
(g44
g2
Ntp2432
Rp2433
(dp2434
g48
I0
sg49
I36
sbag0
(g44
g2
Ntp2435
Rp2436
(dp2437
g48
I1
sg49
I36
sbag0
(g44
g2
Ntp2438
Rp2439
(dp2440
g48
I2
sg49
I36
sbag0
(g44
g2
Ntp2441
Rp2442
(dp2443
g48
I3
sg49
I36
sbag0
(g44
g2
Ntp2444
Rp2445
(dp2446
g48
I0
sg49
I37
sbag0
(g44
g2
Ntp2447
Rp2448
(dp2449
g48
I1
sg49
I37
sbag0
(g44
g2
Ntp2450
Rp2451
(dp2452
g48
I2
sg49
I37
sbag0
(g44
g2
Ntp2453
Rp2454
(dp2455
g48
I3
sg49
I37
sbag0
(g44
g2
Ntp2456
Rp2457
(dp2458
g48
I0
sg49
I38
sbag0
(g44
g2
Ntp2459
Rp2460
(dp2461
g48
I1
sg49
I38
sbag0
(g44
g2
Ntp2462
Rp2463
(dp2464
g48
I2
sg49
I38
sbag0
(g44
g2
Ntp2465
Rp2466
(dp2467
g48
I3
sg49
I38
sbag0
(g44
g2
Ntp2468
Rp2469
(dp2470
g48
I0
sg49
I39
sbag0
(g44
g2
Ntp2471
Rp2472
(dp2473
g48
I1
sg49
I39
sbag0
(g44
g2
Ntp2474
Rp2475
(dp2476
g48
I2
sg49
I39
sbag0
(g44
g2
Ntp2477
Rp2478
(dp2479
g48
I3
sg49
I39
sbag0
(g44
g2
Ntp2480
Rp2481
(dp2482
g48
I0
sg49
I40
sbag0
(g44
g2
Ntp2483
Rp2484
(dp2485
g48
I1
sg49
I40
sbag0
(g44
g2
Ntp2486
Rp2487
(dp2488
g48
I2
sg49
I40
sbag0
(g44
g2
Ntp2489
Rp2490
(dp2491
g48
I3
sg49
I40
sbag0
(g44
g2
Ntp2492
Rp2493
(dp2494
g48
I0
sg49
I41
sbag0
(g44
g2
Ntp2495
Rp2496
(dp2497
g48
I1
sg49
I41
sbag0
(g44
g2
Ntp2498
Rp2499
(dp2500
g48
I2
sg49
I41
sbag0
(g44
g2
Ntp2501
Rp2502
(dp2503
g48
I3
sg49
I41
sbag0
(g44
g2
Ntp2504
Rp2505
(dp2506
g48
I0
sg49
I42
sbag0
(g44
g2
Ntp2507
Rp2508
(dp2509
g48
I1
sg49
I42
sbag0
(g44
g2
Ntp2510
Rp2511
(dp2512
g48
I2
sg49
I42
sbag0
(g44
g2
Ntp2513
Rp2514
(dp2515
g48
I3
sg49
I42
sbag0
(g44
g2
Ntp2516
Rp2517
(dp2518
g48
I0
sg49
I43
sbag0
(g44
g2
Ntp2519
Rp2520
(dp2521
g48
I1
sg49
I43
sbag0
(g44
g2
Ntp2522
Rp2523
(dp2524
g48
I2
sg49
I43
sbag0
(g44
g2
Ntp2525
Rp2526
(dp2527
g48
I3
sg49
I43
sbag0
(g44
g2
Ntp2528
Rp2529
(dp2530
g48
I0
sg49
I44
sbag0
(g44
g2
Ntp2531
Rp2532
(dp2533
g48
I1
sg49
I44
sbag0
(g44
g2
Ntp2534
Rp2535
(dp2536
g48
I2
sg49
I44
sbag0
(g44
g2
Ntp2537
Rp2538
(dp2539
g48
I3
sg49
I44
sbag0
(g44
g2
Ntp2540
Rp2541
(dp2542
g48
I0
sg49
I45
sbag0
(g44
g2
Ntp2543
Rp2544
(dp2545
g48
I1
sg49
I45
sbag0
(g44
g2
Ntp2546
Rp2547
(dp2548
g48
I2
sg49
I45
sbag0
(g44
g2
Ntp2549
Rp2550
(dp2551
g48
I3
sg49
I45
sbag0
(g44
g2
Ntp2552
Rp2553
(dp2554
g48
I0
sg49
I46
sbag0
(g44
g2
Ntp2555
Rp2556
(dp2557
g48
I1
sg49
I46
sbag0
(g44
g2
Ntp2558
Rp2559
(dp2560
g48
I2
sg49
I46
sbag0
(g44
g2
Ntp2561
Rp2562
(dp2563
g48
I3
sg49
I46
sbag0
(g44
g2
Ntp2564
Rp2565
(dp2566
g48
I0
sg49
I47
sbag0
(g44
g2
Ntp2567
Rp2568
(dp2569
g48
I1
sg49
I47
sbag0
(g44
g2
Ntp2570
Rp2571
(dp2572
g48
I2
sg49
I47
sbag0
(g44
g2
Ntp2573
Rp2574
(dp2575
g48
I3
sg49
I47
sbag0
(g44
g2
Ntp2576
Rp2577
(dp2578
g48
I0
sg49
I48
sbag0
(g44
g2
Ntp2579
Rp2580
(dp2581
g48
I1
sg49
I48
sbag0
(g44
g2
Ntp2582
Rp2583
(dp2584
g48
I2
sg49
I48
sbag0
(g44
g2
Ntp2585
Rp2586
(dp2587
g48
I3
sg49
I48
sbag0
(g44
g2
Ntp2588
Rp2589
(dp2590
g48
I0
sg49
I49
sbag0
(g44
g2
Ntp2591
Rp2592
(dp2593
g48
I1
sg49
I49
sbag0
(g44
g2
Ntp2594
Rp2595
(dp2596
g48
I2
sg49
I49
sbag0
(g44
g2
Ntp2597
Rp2598
(dp2599
g48
I3
sg49
I49
sbag0
(g44
g2
Ntp2600
Rp2601
(dp2602
g48
I0
sg49
I50
sbag0
(g44
g2
Ntp2603
Rp2604
(dp2605
g48
I1
sg49
I50
sbag0
(g44
g2
Ntp2606
Rp2607
(dp2608
g48
I2
sg49
I50
sbag0
(g44
g2
Ntp2609
Rp2610
(dp2611
g48
I3
sg49
I50
sbag0
(g44
g2
Ntp2612
Rp2613
(dp2614
g48
I0
sg49
I59
sbag0
(g44
g2
Ntp2615
Rp2616
(dp2617
g48
I1
sg49
I59
sbag0
(g44
g2
Ntp2618
Rp2619
(dp2620
g48
I2
sg49
I59
sbag0
(g44
g2
Ntp2621
Rp2622
(dp2623
g48
I3
sg49
I59
sbag0
(g44
g2
Ntp2624
Rp2625
(dp2626
g48
I0
sg49
I60
sbag0
(g44
g2
Ntp2627
Rp2628
(dp2629
g48
I1
sg49
I60
sbag0
(g44
g2
Ntp2630
Rp2631
(dp2632
g48
I2
sg49
I60
sbag0
(g44
g2
Ntp2633
Rp2634
(dp2635
g48
I3
sg49
I60
sbag0
(g44
g2
Ntp2636
Rp2637
(dp2638
g48
I0
sg49
I61
sbag0
(g44
g2
Ntp2639
Rp2640
(dp2641
g48
I1
sg49
I61
sbag0
(g44
g2
Ntp2642
Rp2643
(dp2644
g48
I2
sg49
I61
sbag0
(g44
g2
Ntp2645
Rp2646
(dp2647
g48
I3
sg49
I61
sbag0
(g44
g2
Ntp2648
Rp2649
(dp2650
g48
I0
sg49
I62
sbag0
(g44
g2
Ntp2651
Rp2652
(dp2653
g48
I1
sg49
I62
sbag0
(g44
g2
Ntp2654
Rp2655
(dp2656
g48
I2
sg49
I62
sbag0
(g44
g2
Ntp2657
Rp2658
(dp2659
g48
I3
sg49
I62
sbag0
(g44
g2
Ntp2660
Rp2661
(dp2662
g48
I0
sg49
I63
sbag0
(g44
g2
Ntp2663
Rp2664
(dp2665
g48
I1
sg49
I63
sbag0
(g44
g2
Ntp2666
Rp2667
(dp2668
g48
I2
sg49
I63
sbag0
(g44
g2
Ntp2669
Rp2670
(dp2671
g48
I3
sg49
I63
sbag0
(g44
g2
Ntp2672
Rp2673
(dp2674
g48
I0
sg49
I64
sbag0
(g44
g2
Ntp2675
Rp2676
(dp2677
g48
I1
sg49
I64
sbag0
(g44
g2
Ntp2678
Rp2679
(dp2680
g48
I2
sg49
I64
sbag0
(g44
g2
Ntp2681
Rp2682
(dp2683
g48
I3
sg49
I64
sbag0
(g44
g2
Ntp2684
Rp2685
(dp2686
g48
I0
sg49
I65
sbag0
(g44
g2
Ntp2687
Rp2688
(dp2689
g48
I1
sg49
I65
sbag0
(g44
g2
Ntp2690
Rp2691
(dp2692
g48
I2
sg49
I65
sbag0
(g44
g2
Ntp2693
Rp2694
(dp2695
g48
I3
sg49
I65
sbag0
(g44
g2
Ntp2696
Rp2697
(dp2698
g48
I0
sg49
I66
sbag0
(g44
g2
Ntp2699
Rp2700
(dp2701
g48
I1
sg49
I66
sbag0
(g44
g2
Ntp2702
Rp2703
(dp2704
g48
I2
sg49
I66
sbag0
(g44
g2
Ntp2705
Rp2706
(dp2707
g48
I3
sg49
I66
sbag0
(g44
g2
Ntp2708
Rp2709
(dp2710
g48
I0
sg49
I67
sbag0
(g44
g2
Ntp2711
Rp2712
(dp2713
g48
I1
sg49
I67
sbag0
(g44
g2
Ntp2714
Rp2715
(dp2716
g48
I2
sg49
I67
sbag0
(g44
g2
Ntp2717
Rp2718
(dp2719
g48
I3
sg49
I67
sbag0
(g44
g2
Ntp2720
Rp2721
(dp2722
g48
I0
sg49
I68
sbag0
(g44
g2
Ntp2723
Rp2724
(dp2725
g48
I1
sg49
I68
sbag0
(g44
g2
Ntp2726
Rp2727
(dp2728
g48
I2
sg49
I68
sbag0
(g44
g2
Ntp2729
Rp2730
(dp2731
g48
I3
sg49
I68
sbag0
(g44
g2
Ntp2732
Rp2733
(dp2734
g48
I0
sg49
I69
sbag0
(g44
g2
Ntp2735
Rp2736
(dp2737
g48
I1
sg49
I69
sbag0
(g44
g2
Ntp2738
Rp2739
(dp2740
g48
I2
sg49
I69
sbag0
(g44
g2
Ntp2741
Rp2742
(dp2743
g48
I3
sg49
I69
sbag0
(g44
g2
Ntp2744
Rp2745
(dp2746
g48
I0
sg49
I70
sbag0
(g44
g2
Ntp2747
Rp2748
(dp2749
g48
I1
sg49
I70
sbag0
(g44
g2
Ntp2750
Rp2751
(dp2752
g48
I2
sg49
I70
sbag0
(g44
g2
Ntp2753
Rp2754
(dp2755
g48
I3
sg49
I70
sbag0
(g44
g2
Ntp2756
Rp2757
(dp2758
g48
I0
sg49
I71
sbag0
(g44
g2
Ntp2759
Rp2760
(dp2761
g48
I1
sg49
I71
sbag0
(g44
g2
Ntp2762
Rp2763
(dp2764
g48
I2
sg49
I71
sbag0
(g44
g2
Ntp2765
Rp2766
(dp2767
g48
I3
sg49
I71
sbag0
(g44
g2
Ntp2768
Rp2769
(dp2770
g48
I0
sg49
I72
sbag0
(g44
g2
Ntp2771
Rp2772
(dp2773
g48
I1
sg49
I72
sbag0
(g44
g2
Ntp2774
Rp2775
(dp2776
g48
I2
sg49
I72
sbag0
(g44
g2
Ntp2777
Rp2778
(dp2779
g48
I3
sg49
I72
sbag0
(g44
g2
Ntp2780
Rp2781
(dp2782
g48
I0
sg49
I73
sbag0
(g44
g2
Ntp2783
Rp2784
(dp2785
g48
I1
sg49
I73
sbag0
(g44
g2
Ntp2786
Rp2787
(dp2788
g48
I2
sg49
I73
sbag0
(g44
g2
Ntp2789
Rp2790
(dp2791
g48
I3
sg49
I73
sbag0
(g44
g2
Ntp2792
Rp2793
(dp2794
g48
I0
sg49
I74
sbag0
(g44
g2
Ntp2795
Rp2796
(dp2797
g48
I1
sg49
I74
sbag0
(g44
g2
Ntp2798
Rp2799
(dp2800
g48
I2
sg49
I74
sbag0
(g44
g2
Ntp2801
Rp2802
(dp2803
g48
I3
sg49
I74
sbag0
(g44
g2
Ntp2804
Rp2805
(dp2806
g48
I0
sg49
I75
sbag0
(g44
g2
Ntp2807
Rp2808
(dp2809
g48
I1
sg49
I75
sbag0
(g44
g2
Ntp2810
Rp2811
(dp2812
g48
I2
sg49
I75
sbag0
(g44
g2
Ntp2813
Rp2814
(dp2815
g48
I3
sg49
I75
sbag0
(g44
g2
Ntp2816
Rp2817
(dp2818
g48
I0
sg49
I76
sbag0
(g44
g2
Ntp2819
Rp2820
(dp2821
g48
I1
sg49
I76
sbag0
(g44
g2
Ntp2822
Rp2823
(dp2824
g48
I2
sg49
I76
sbag0
(g44
g2
Ntp2825
Rp2826
(dp2827
g48
I3
sg49
I76
sbag0
(g44
g2
Ntp2828
Rp2829
(dp2830
g48
I0
sg49
I77
sbag0
(g44
g2
Ntp2831
Rp2832
(dp2833
g48
I1
sg49
I77
sbag0
(g44
g2
Ntp2834
Rp2835
(dp2836
g48
I2
sg49
I77
sbag0
(g44
g2
Ntp2837
Rp2838
(dp2839
g48
I3
sg49
I77
sbag0
(g44
g2
Ntp2840
Rp2841
(dp2842
g48
I0
sg49
I78
sbag0
(g44
g2
Ntp2843
Rp2844
(dp2845
g48
I1
sg49
I78
sbag0
(g44
g2
Ntp2846
Rp2847
(dp2848
g48
I2
sg49
I78
sbag0
(g44
g2
Ntp2849
Rp2850
(dp2851
g48
I3
sg49
I78
sbag0
(g44
g2
Ntp2852
Rp2853
(dp2854
g48
I0
sg49
I79
sbag0
(g44
g2
Ntp2855
Rp2856
(dp2857
g48
I1
sg49
I79
sbag0
(g44
g2
Ntp2858
Rp2859
(dp2860
g48
I2
sg49
I79
sbag0
(g44
g2
Ntp2861
Rp2862
(dp2863
g48
I3
sg49
I79
sbag0
(g44
g2
Ntp2864
Rp2865
(dp2866
g48
I4
sg49
I15
sbag0
(g44
g2
Ntp2867
Rp2868
(dp2869
g48
I6
sg49
I15
sbag0
(g44
g2
Ntp2870
Rp2871
(dp2872
g48
I8
sg49
I15
sbag0
(g44
g2
Ntp2873
Rp2874
(dp2875
g48
I10
sg49
I15
sbag0
(g44
g2
Ntp2876
Rp2877
(dp2878
g48
I15
sg49
I4
sbag0
(g44
g2
Ntp2879
Rp2880
(dp2881
g48
I15
sg49
I6
sbag0
(g44
g2
Ntp2882
Rp2883
(dp2884
g48
I15
sg49
I8
sbag0
(g44
g2
Ntp2885
Rp2886
(dp2887
g48
I15
sg49
I10
sbag0
(g44
g2
Ntp2888
Rp2889
(dp2890
g48
I15
sg49
I11
sbag0
(g44
g2
Ntp2891
Rp2892
(dp2893
g48
I38
sg49
I3
sbag0
(g44
g2
Ntp2894
Rp2895
(dp2896
g48
I38
sg49
I4
sbag0
(g44
g2
Ntp2897
Rp2898
(dp2899
g48
I38
sg49
I6
sbag0
(g44
g2
Ntp2900
Rp2901
(dp2902
g48
I38
sg49
I8
sbag0
(g44
g2
Ntp2903
Rp2904
(dp2905
g48
I38
sg49
I10
sbag0
(g44
g2
Ntp2906
Rp2907
(dp2908
g48
I38
sg49
I12
sbag0
(g44
g2
Ntp2909
Rp2910
(dp2911
g48
I38
sg49
I14
sbag0
(g44
g2
Ntp2912
Rp2913
(dp2914
g48
I38
sg49
I16
sbag0
(g44
g2
Ntp2915
Rp2916
(dp2917
g48
I38
sg49
I18
sbag0
(g44
g2
Ntp2918
Rp2919
(dp2920
g48
I38
sg49
I20
sbag0
(g44
g2
Ntp2921
Rp2922
(dp2923
g48
I38
sg49
I22
sbag0
(g44
g2
Ntp2924
Rp2925
(dp2926
g48
I23
sg49
I3
sbag0
(g44
g2
Ntp2927
Rp2928
(dp2929
g48
I24
sg49
I3
sbag0
(g44
g2
Ntp2930
Rp2931
(dp2932
g48
I25
sg49
I3
sbag0
(g44
g2
Ntp2933
Rp2934
(dp2935
g48
I26
sg49
I3
sbag0
(g44
g2
Ntp2936
Rp2937
(dp2938
g48
I27
sg49
I3
sbag0
(g44
g2
Ntp2939
Rp2940
(dp2941
g48
I28
sg49
I3
sbag0
(g44
g2
Ntp2942
Rp2943
(dp2944
g48
I23
sg49
I4
sbag0
(g44
g2
Ntp2945
Rp2946
(dp2947
g48
I24
sg49
I4
sbag0
(g44
g2
Ntp2948
Rp2949
(dp2950
g48
I25
sg49
I4
sbag0
(g44
g2
Ntp2951
Rp2952
(dp2953
g48
I26
sg49
I4
sbag0
(g44
g2
Ntp2954
Rp2955
(dp2956
g48
I27
sg49
I4
sbag0
(g44
g2
Ntp2957
Rp2958
(dp2959
g48
I28
sg49
I4
sbag0
(g44
g2
Ntp2960
Rp2961
(dp2962
g48
I23
sg49
I5
sbag0
(g44
g2
Ntp2963
Rp2964
(dp2965
g48
I24
sg49
I5
sbag0
(g44
g2
Ntp2966
Rp2967
(dp2968
g48
I25
sg49
I5
sbag0
(g44
g2
Ntp2969
Rp2970
(dp2971
g48
I26
sg49
I5
sbag0
(g44
g2
Ntp2972
Rp2973
(dp2974
g48
I27
sg49
I5
sbag0
(g44
g2
Ntp2975
Rp2976
(dp2977
g48
I28
sg49
I5
sbag0
(g44
g2
Ntp2978
Rp2979
(dp2980
g48
I23
sg49
I6
sbag0
(g44
g2
Ntp2981
Rp2982
(dp2983
g48
I24
sg49
I6
sbag0
(g44
g2
Ntp2984
Rp2985
(dp2986
g48
I25
sg49
I6
sbag0
(g44
g2
Ntp2987
Rp2988
(dp2989
g48
I26
sg49
I6
sbag0
(g44
g2
Ntp2990
Rp2991
(dp2992
g48
I27
sg49
I6
sbag0
(g44
g2
Ntp2993
Rp2994
(dp2995
g48
I28
sg49
I6
sbag0
(g44
g2
Ntp2996
Rp2997
(dp2998
g48
I23
sg49
I7
sbag0
(g44
g2
Ntp2999
Rp3000
(dp3001
g48
I24
sg49
I7
sbag0
(g44
g2
Ntp3002
Rp3003
(dp3004
g48
I25
sg49
I7
sbag0
(g44
g2
Ntp3005
Rp3006
(dp3007
g48
I26
sg49
I7
sbag0
(g44
g2
Ntp3008
Rp3009
(dp3010
g48
I27
sg49
I7
sbag0
(g44
g2
Ntp3011
Rp3012
(dp3013
g48
I28
sg49
I7
sbag0
(g44
g2
Ntp3014
Rp3015
(dp3016
g48
I23
sg49
I8
sbag0
(g44
g2
Ntp3017
Rp3018
(dp3019
g48
I24
sg49
I8
sbag0
(g44
g2
Ntp3020
Rp3021
(dp3022
g48
I25
sg49
I8
sbag0
(g44
g2
Ntp3023
Rp3024
(dp3025
g48
I26
sg49
I8
sbag0
(g44
g2
Ntp3026
Rp3027
(dp3028
g48
I27
sg49
I8
sbag0
(g44
g2
Ntp3029
Rp3030
(dp3031
g48
I28
sg49
I8
sbag0
(g44
g2
Ntp3032
Rp3033
(dp3034
g48
I23
sg49
I9
sbag0
(g44
g2
Ntp3035
Rp3036
(dp3037
g48
I24
sg49
I9
sbag0
(g44
g2
Ntp3038
Rp3039
(dp3040
g48
I25
sg49
I9
sbag0
(g44
g2
Ntp3041
Rp3042
(dp3043
g48
I26
sg49
I9
sbag0
(g44
g2
Ntp3044
Rp3045
(dp3046
g48
I27
sg49
I9
sbag0
(g44
g2
Ntp3047
Rp3048
(dp3049
g48
I28
sg49
I9
sbag0
(g44
g2
Ntp3050
Rp3051
(dp3052
g48
I23
sg49
I10
sbag0
(g44
g2
Ntp3053
Rp3054
(dp3055
g48
I24
sg49
I10
sbag0
(g44
g2
Ntp3056
Rp3057
(dp3058
g48
I25
sg49
I10
sbag0
(g44
g2
Ntp3059
Rp3060
(dp3061
g48
I26
sg49
I10
sbag0
(g44
g2
Ntp3062
Rp3063
(dp3064
g48
I27
sg49
I10
sbag0
(g44
g2
Ntp3065
Rp3066
(dp3067
g48
I28
sg49
I10
sbag0
(g44
g2
Ntp3068
Rp3069
(dp3070
g48
I23
sg49
I11
sbag0
(g44
g2
Ntp3071
Rp3072
(dp3073
g48
I24
sg49
I11
sbag0
(g44
g2
Ntp3074
Rp3075
(dp3076
g48
I25
sg49
I11
sbag0
(g44
g2
Ntp3077
Rp3078
(dp3079
g48
I26
sg49
I11
sbag0
(g44
g2
Ntp3080
Rp3081
(dp3082
g48
I27
sg49
I11
sbag0
(g44
g2
Ntp3083
Rp3084
(dp3085
g48
I28
sg49
I11
sbag0
(g44
g2
Ntp3086
Rp3087
(dp3088
g48
I23
sg49
I12
sbag0
(g44
g2
Ntp3089
Rp3090
(dp3091
g48
I24
sg49
I12
sbag0
(g44
g2
Ntp3092
Rp3093
(dp3094
g48
I25
sg49
I12
sbag0
(g44
g2
Ntp3095
Rp3096
(dp3097
g48
I26
sg49
I12
sbag0
(g44
g2
Ntp3098
Rp3099
(dp3100
g48
I27
sg49
I12
sbag0
(g44
g2
Ntp3101
Rp3102
(dp3103
g48
I28
sg49
I12
sbag0
(g44
g2
Ntp3104
Rp3105
(dp3106
g48
I23
sg49
I13
sbag0
(g44
g2
Ntp3107
Rp3108
(dp3109
g48
I24
sg49
I13
sbag0
(g44
g2
Ntp3110
Rp3111
(dp3112
g48
I25
sg49
I13
sbag0
(g44
g2
Ntp3113
Rp3114
(dp3115
g48
I26
sg49
I13
sbag0
(g44
g2
Ntp3116
Rp3117
(dp3118
g48
I27
sg49
I13
sbag0
(g44
g2
Ntp3119
Rp3120
(dp3121
g48
I28
sg49
I13
sbag0
(g44
g2
Ntp3122
Rp3123
(dp3124
g48
I23
sg49
I14
sbag0
(g44
g2
Ntp3125
Rp3126
(dp3127
g48
I24
sg49
I14
sbag0
(g44
g2
Ntp3128
Rp3129
(dp3130
g48
I25
sg49
I14
sbag0
(g44
g2
Ntp3131
Rp3132
(dp3133
g48
I26
sg49
I14
sbag0
(g44
g2
Ntp3134
Rp3135
(dp3136
g48
I27
sg49
I14
sbag0
(g44
g2
Ntp3137
Rp3138
(dp3139
g48
I28
sg49
I14
sbag0
(g44
g2
Ntp3140
Rp3141
(dp3142
g48
I23
sg49
I15
sbag0
(g44
g2
Ntp3143
Rp3144
(dp3145
g48
I24
sg49
I15
sbag0
(g44
g2
Ntp3146
Rp3147
(dp3148
g48
I25
sg49
I15
sbag0
(g44
g2
Ntp3149
Rp3150
(dp3151
g48
I26
sg49
I15
sbag0
(g44
g2
Ntp3152
Rp3153
(dp3154
g48
I27
sg49
I15
sbag0
(g44
g2
Ntp3155
Rp3156
(dp3157
g48
I28
sg49
I15
sbag0
(g44
g2
Ntp3158
Rp3159
(dp3160
g48
I23
sg49
I16
sbag0
(g44
g2
Ntp3161
Rp3162
(dp3163
g48
I24
sg49
I16
sbag0
(g44
g2
Ntp3164
Rp3165
(dp3166
g48
I25
sg49
I16
sbag0
(g44
g2
Ntp3167
Rp3168
(dp3169
g48
I26
sg49
I16
sbag0
(g44
g2
Ntp3170
Rp3171
(dp3172
g48
I27
sg49
I16
sbag0
(g44
g2
Ntp3173
Rp3174
(dp3175
g48
I28
sg49
I16
sbag0
(g44
g2
Ntp3176
Rp3177
(dp3178
g48
I23
sg49
I17
sbag0
(g44
g2
Ntp3179
Rp3180
(dp3181
g48
I24
sg49
I17
sbag0
(g44
g2
Ntp3182
Rp3183
(dp3184
g48
I25
sg49
I17
sbag0
(g44
g2
Ntp3185
Rp3186
(dp3187
g48
I26
sg49
I17
sbag0
(g44
g2
Ntp3188
Rp3189
(dp3190
g48
I27
sg49
I17
sbag0
(g44
g2
Ntp3191
Rp3192
(dp3193
g48
I28
sg49
I17
sbag0
(g44
g2
Ntp3194
Rp3195
(dp3196
g48
I27
sg49
I20
sbag0
(g44
g2
Ntp3197
Rp3198
(dp3199
g48
I28
sg49
I20
sbag0
(g44
g2
Ntp3200
Rp3201
(dp3202
g48
I27
sg49
I21
sbag0
(g44
g2
Ntp3203
Rp3204
(dp3205
g48
I28
sg49
I21
sbag0
(g44
g2
Ntp3206
Rp3207
(dp3208
g48
I27
sg49
I22
sbag0
(g44
g2
Ntp3209
Rp3210
(dp3211
g48
I28
sg49
I22
sbag0
(g44
g2
Ntp3212
Rp3213
(dp3214
g48
I27
sg49
I23
sbag0
(g44
g2
Ntp3215
Rp3216
(dp3217
g48
I28
sg49
I23
sbag0
(g44
g2
Ntp3218
Rp3219
(dp3220
g48
I27
sg49
I24
sbag0
(g44
g2
Ntp3221
Rp3222
(dp3223
g48
I28
sg49
I24
sbag0
(g44
g2
Ntp3224
Rp3225
(dp3226
g48
I27
sg49
I25
sbag0
(g44
g2
Ntp3227
Rp3228
(dp3229
g48
I28
sg49
I25
sbag0
(g44
g2
Ntp3230
Rp3231
(dp3232
g48
I27
sg49
I26
sbag0
(g44
g2
Ntp3233
Rp3234
(dp3235
g48
I28
sg49
I26
sbag0
(g44
g2
Ntp3236
Rp3237
(dp3238
g48
I27
sg49
I27
sbag0
(g44
g2
Ntp3239
Rp3240
(dp3241
g48
I28
sg49
I27
sbag0
(g44
g2
Ntp3242
Rp3243
(dp3244
g48
I27
sg49
I28
sbag0
(g44
g2
Ntp3245
Rp3246
(dp3247
g48
I28
sg49
I28
sbag0
(g44
g2
Ntp3248
Rp3249
(dp3250
g48
I27
sg49
I29
sbag0
(g44
g2
Ntp3251
Rp3252
(dp3253
g48
I28
sg49
I29
sbag0
(g44
g2
Ntp3254
Rp3255
(dp3256
g48
I27
sg49
I30
sbag0
(g44
g2
Ntp3257
Rp3258
(dp3259
g48
I28
sg49
I30
sbag0
(g44
g2
Ntp3260
Rp3261
(dp3262
g48
I27
sg49
I31
sbag0
(g44
g2
Ntp3263
Rp3264
(dp3265
g48
I28
sg49
I31
sbag0
(g44
g2
Ntp3266
Rp3267
(dp3268
g48
I27
sg49
I32
sbag0
(g44
g2
Ntp3269
Rp3270
(dp3271
g48
I28
sg49
I32
sbag0
(g44
g2
Ntp3272
Rp3273
(dp3274
g48
I27
sg49
I33
sbag0
(g44
g2
Ntp3275
Rp3276
(dp3277
g48
I28
sg49
I33
sbag0
(g44
g2
Ntp3278
Rp3279
(dp3280
g48
I27
sg49
I34
sbag0
(g44
g2
Ntp3281
Rp3282
(dp3283
g48
I28
sg49
I34
sbag0
(g44
g2
Ntp3284
Rp3285
(dp3286
g48
I27
sg49
I35
sbag0
(g44
g2
Ntp3287
Rp3288
(dp3289
g48
I28
sg49
I35
sbag0
(g44
g2
Ntp3290
Rp3291
(dp3292
g48
I27
sg49
I36
sbag0
(g44
g2
Ntp3293
Rp3294
(dp3295
g48
I28
sg49
I36
sbag0
(g44
g2
Ntp3296
Rp3297
(dp3298
g48
I29
sg49
I23
sbag0
(g44
g2
Ntp3299
Rp3300
(dp3301
g48
I30
sg49
I23
sbag0
(g44
g2
Ntp3302
Rp3303
(dp3304
g48
I31
sg49
I23
sbag0
(g44
g2
Ntp3305
Rp3306
(dp3307
g48
I32
sg49
I23
sbag0
(g44
g2
Ntp3308
Rp3309
(dp3310
g48
I33
sg49
I23
sbag0
(g44
g2
Ntp3311
Rp3312
(dp3313
g48
I34
sg49
I23
sbag0
(g44
g2
Ntp3314
Rp3315
(dp3316
g48
I35
sg49
I23
sbag0
(g44
g2
Ntp3317
Rp3318
(dp3319
g48
I36
sg49
I23
sbag0
(g44
g2
Ntp3320
Rp3321
(dp3322
g48
I37
sg49
I23
sbag0
(g44
g2
Ntp3323
Rp3324
(dp3325
g48
I38
sg49
I23
sbag0
(g44
g2
Ntp3326
Rp3327
(dp3328
g48
I39
sg49
I23
sbag0
(g44
g2
Ntp3329
Rp3330
(dp3331
g48
I40
sg49
I23
sbag0
(g44
g2
Ntp3332
Rp3333
(dp3334
g48
I41
sg49
I23
sbag0
(g44
g2
Ntp3335
Rp3336
(dp3337
g48
I42
sg49
I23
sbag0
(g44
g2
Ntp3338
Rp3339
(dp3340
g48
I43
sg49
I23
sbag0
(g44
g2
Ntp3341
Rp3342
(dp3343
g48
I44
sg49
I23
sbag0
(g44
g2
Ntp3344
Rp3345
(dp3346
g48
I45
sg49
I23
sbag0
(g44
g2
Ntp3347
Rp3348
(dp3349
g48
I29
sg49
I24
sbag0
(g44
g2
Ntp3350
Rp3351
(dp3352
g48
I30
sg49
I24
sbag0
(g44
g2
Ntp3353
Rp3354
(dp3355
g48
I31
sg49
I24
sbag0
(g44
g2
Ntp3356
Rp3357
(dp3358
g48
I32
sg49
I24
sbag0
(g44
g2
Ntp3359
Rp3360
(dp3361
g48
I33
sg49
I24
sbag0
(g44
g2
Ntp3362
Rp3363
(dp3364
g48
I34
sg49
I24
sbag0
(g44
g2
Ntp3365
Rp3366
(dp3367
g48
I35
sg49
I24
sbag0
(g44
g2
Ntp3368
Rp3369
(dp3370
g48
I36
sg49
I24
sbag0
(g44
g2
Ntp3371
Rp3372
(dp3373
g48
I37
sg49
I24
sbag0
(g44
g2
Ntp3374
Rp3375
(dp3376
g48
I38
sg49
I24
sbag0
(g44
g2
Ntp3377
Rp3378
(dp3379
g48
I39
sg49
I24
sbag0
(g44
g2
Ntp3380
Rp3381
(dp3382
g48
I40
sg49
I24
sbag0
(g44
g2
Ntp3383
Rp3384
(dp3385
g48
I41
sg49
I24
sbag0
(g44
g2
Ntp3386
Rp3387
(dp3388
g48
I42
sg49
I24
sbag0
(g44
g2
Ntp3389
Rp3390
(dp3391
g48
I43
sg49
I24
sbag0
(g44
g2
Ntp3392
Rp3393
(dp3394
g48
I44
sg49
I24
sbag0
(g44
g2
Ntp3395
Rp3396
(dp3397
g48
I45
sg49
I24
sbag0
(g44
g2
Ntp3398
Rp3399
(dp3400
g48
I29
sg49
I25
sbag0
(g44
g2
Ntp3401
Rp3402
(dp3403
g48
I30
sg49
I25
sbag0
(g44
g2
Ntp3404
Rp3405
(dp3406
g48
I31
sg49
I25
sbag0
(g44
g2
Ntp3407
Rp3408
(dp3409
g48
I32
sg49
I25
sbag0
(g44
g2
Ntp3410
Rp3411
(dp3412
g48
I33
sg49
I25
sbag0
(g44
g2
Ntp3413
Rp3414
(dp3415
g48
I34
sg49
I25
sbag0
(g44
g2
Ntp3416
Rp3417
(dp3418
g48
I35
sg49
I25
sbag0
(g44
g2
Ntp3419
Rp3420
(dp3421
g48
I36
sg49
I25
sbag0
(g44
g2
Ntp3422
Rp3423
(dp3424
g48
I37
sg49
I25
sbag0
(g44
g2
Ntp3425
Rp3426
(dp3427
g48
I38
sg49
I25
sbag0
(g44
g2
Ntp3428
Rp3429
(dp3430
g48
I39
sg49
I25
sbag0
(g44
g2
Ntp3431
Rp3432
(dp3433
g48
I40
sg49
I25
sbag0
(g44
g2
Ntp3434
Rp3435
(dp3436
g48
I41
sg49
I25
sbag0
(g44
g2
Ntp3437
Rp3438
(dp3439
g48
I42
sg49
I25
sbag0
(g44
g2
Ntp3440
Rp3441
(dp3442
g48
I43
sg49
I25
sbag0
(g44
g2
Ntp3443
Rp3444
(dp3445
g48
I44
sg49
I25
sbag0
(g44
g2
Ntp3446
Rp3447
(dp3448
g48
I45
sg49
I25
sbag0
(g44
g2
Ntp3449
Rp3450
(dp3451
g48
I29
sg49
I26
sbag0
(g44
g2
Ntp3452
Rp3453
(dp3454
g48
I30
sg49
I26
sbag0
(g44
g2
Ntp3455
Rp3456
(dp3457
g48
I31
sg49
I26
sbag0
(g44
g2
Ntp3458
Rp3459
(dp3460
g48
I32
sg49
I26
sbag0
(g44
g2
Ntp3461
Rp3462
(dp3463
g48
I33
sg49
I26
sbag0
(g44
g2
Ntp3464
Rp3465
(dp3466
g48
I34
sg49
I26
sbag0
(g44
g2
Ntp3467
Rp3468
(dp3469
g48
I35
sg49
I26
sbag0
(g44
g2
Ntp3470
Rp3471
(dp3472
g48
I36
sg49
I26
sbag0
(g44
g2
Ntp3473
Rp3474
(dp3475
g48
I37
sg49
I26
sbag0
(g44
g2
Ntp3476
Rp3477
(dp3478
g48
I38
sg49
I26
sbag0
(g44
g2
Ntp3479
Rp3480
(dp3481
g48
I39
sg49
I26
sbag0
(g44
g2
Ntp3482
Rp3483
(dp3484
g48
I40
sg49
I26
sbag0
(g44
g2
Ntp3485
Rp3486
(dp3487
g48
I41
sg49
I26
sbag0
(g44
g2
Ntp3488
Rp3489
(dp3490
g48
I42
sg49
I26
sbag0
(g44
g2
Ntp3491
Rp3492
(dp3493
g48
I43
sg49
I26
sbag0
(g44
g2
Ntp3494
Rp3495
(dp3496
g48
I44
sg49
I26
sbag0
(g44
g2
Ntp3497
Rp3498
(dp3499
g48
I45
sg49
I26
sbag0
(g44
g2
Ntp3500
Rp3501
(dp3502
g48
I29
sg49
I27
sbag0
(g44
g2
Ntp3503
Rp3504
(dp3505
g48
I30
sg49
I27
sbag0
(g44
g2
Ntp3506
Rp3507
(dp3508
g48
I31
sg49
I27
sbag0
(g44
g2
Ntp3509
Rp3510
(dp3511
g48
I32
sg49
I27
sbag0
(g44
g2
Ntp3512
Rp3513
(dp3514
g48
I33
sg49
I27
sbag0
(g44
g2
Ntp3515
Rp3516
(dp3517
g48
I34
sg49
I27
sbag0
(g44
g2
Ntp3518
Rp3519
(dp3520
g48
I35
sg49
I27
sbag0
(g44
g2
Ntp3521
Rp3522
(dp3523
g48
I36
sg49
I27
sbag0
(g44
g2
Ntp3524
Rp3525
(dp3526
g48
I37
sg49
I27
sbag0
(g44
g2
Ntp3527
Rp3528
(dp3529
g48
I38
sg49
I27
sbag0
(g44
g2
Ntp3530
Rp3531
(dp3532
g48
I39
sg49
I27
sbag0
(g44
g2
Ntp3533
Rp3534
(dp3535
g48
I40
sg49
I27
sbag0
(g44
g2
Ntp3536
Rp3537
(dp3538
g48
I41
sg49
I27
sbag0
(g44
g2
Ntp3539
Rp3540
(dp3541
g48
I42
sg49
I27
sbag0
(g44
g2
Ntp3542
Rp3543
(dp3544
g48
I43
sg49
I27
sbag0
(g44
g2
Ntp3545
Rp3546
(dp3547
g48
I44
sg49
I27
sbag0
(g44
g2
Ntp3548
Rp3549
(dp3550
g48
I45
sg49
I27
sbag0
(g44
g2
Ntp3551
Rp3552
(dp3553
g48
I22
sg49
I20
sbag0
(g44
g2
Ntp3554
Rp3555
(dp3556
g48
I23
sg49
I20
sbag0
(g44
g2
Ntp3557
Rp3558
(dp3559
g48
I22
sg49
I21
sbag0
(g44
g2
Ntp3560
Rp3561
(dp3562
g48
I23
sg49
I21
sbag0
(g44
g2
Ntp3563
Rp3564
(dp3565
g48
I22
sg49
I22
sbag0
(g44
g2
Ntp3566
Rp3567
(dp3568
g48
I23
sg49
I22
sbag0
(g44
g2
Ntp3569
Rp3570
(dp3571
g48
I22
sg49
I23
sbag0
(g44
g2
Ntp3572
Rp3573
(dp3574
g48
I23
sg49
I23
sbag0
(g44
g2
Ntp3575
Rp3576
(dp3577
g48
I22
sg49
I24
sbag0
(g44
g2
Ntp3578
Rp3579
(dp3580
g48
I23
sg49
I24
sbag0
(g44
g2
Ntp3581
Rp3582
(dp3583
g48
I22
sg49
I25
sbag0
(g44
g2
Ntp3584
Rp3585
(dp3586
g48
I23
sg49
I25
sbag0
(g44
g2
Ntp3587
Rp3588
(dp3589
g48
I22
sg49
I26
sbag0
(g44
g2
Ntp3590
Rp3591
(dp3592
g48
I23
sg49
I26
sbag0
(g44
g2
Ntp3593
Rp3594
(dp3595
g48
I22
sg49
I27
sbag0
(g44
g2
Ntp3596
Rp3597
(dp3598
g48
I23
sg49
I27
sbag0
(g44
g2
Ntp3599
Rp3600
(dp3601
g48
I22
sg49
I28
sbag0
(g44
g2
Ntp3602
Rp3603
(dp3604
g48
I23
sg49
I28
sbag0
(g44
g2
Ntp3605
Rp3606
(dp3607
g48
I22
sg49
I29
sbag0
(g44
g2
Ntp3608
Rp3609
(dp3610
g48
I23
sg49
I29
sbag0
(g44
g2
Ntp3611
Rp3612
(dp3613
g48
I22
sg49
I30
sbag0
(g44
g2
Ntp3614
Rp3615
(dp3616
g48
I23
sg49
I30
sbag0
(g44
g2
Ntp3617
Rp3618
(dp3619
g48
I22
sg49
I31
sbag0
(g44
g2
Ntp3620
Rp3621
(dp3622
g48
I23
sg49
I31
sbag0
(g44
g2
Ntp3623
Rp3624
(dp3625
g48
I22
sg49
I32
sbag0
(g44
g2
Ntp3626
Rp3627
(dp3628
g48
I23
sg49
I32
sbag0
(g44
g2
Ntp3629
Rp3630
(dp3631
g48
I22
sg49
I33
sbag0
(g44
g2
Ntp3632
Rp3633
(dp3634
g48
I23
sg49
I33
sbag0
(g44
g2
Ntp3635
Rp3636
(dp3637
g48
I22
sg49
I34
sbag0
(g44
g2
Ntp3638
Rp3639
(dp3640
g48
I23
sg49
I34
sbag0
(g44
g2
Ntp3641
Rp3642
(dp3643
g48
I22
sg49
I35
sbag0
(g44
g2
Ntp3644
Rp3645
(dp3646
g48
I23
sg49
I35
sbag0
(g44
g2
Ntp3647
Rp3648
(dp3649
g48
I22
sg49
I36
sbag0
(g44
g2
Ntp3650
Rp3651
(dp3652
g48
I23
sg49
I36
sbag0
(g44
g2
Ntp3653
Rp3654
(dp3655
g48
I3
sg49
I23
sbag0
(g44
g2
Ntp3656
Rp3657
(dp3658
g48
I4
sg49
I23
sbag0
(g44
g2
Ntp3659
Rp3660
(dp3661
g48
I5
sg49
I23
sbag0
(g44
g2
Ntp3662
Rp3663
(dp3664
g48
I6
sg49
I23
sbag0
(g44
g2
Ntp3665
Rp3666
(dp3667
g48
I7
sg49
I23
sbag0
(g44
g2
Ntp3668
Rp3669
(dp3670
g48
I8
sg49
I23
sbag0
(g44
g2
Ntp3671
Rp3672
(dp3673
g48
I9
sg49
I23
sbag0
(g44
g2
Ntp3674
Rp3675
(dp3676
g48
I10
sg49
I23
sbag0
(g44
g2
Ntp3677
Rp3678
(dp3679
g48
I11
sg49
I23
sbag0
(g44
g2
Ntp3680
Rp3681
(dp3682
g48
I12
sg49
I23
sbag0
(g44
g2
Ntp3683
Rp3684
(dp3685
g48
I13
sg49
I23
sbag0
(g44
g2
Ntp3686
Rp3687
(dp3688
g48
I14
sg49
I23
sbag0
(g44
g2
Ntp3689
Rp3690
(dp3691
g48
I15
sg49
I23
sbag0
(g44
g2
Ntp3692
Rp3693
(dp3694
g48
I16
sg49
I23
sbag0
(g44
g2
Ntp3695
Rp3696
(dp3697
g48
I17
sg49
I23
sbag0
(g44
g2
Ntp3698
Rp3699
(dp3700
g48
I18
sg49
I23
sbag0
(g44
g2
Ntp3701
Rp3702
(dp3703
g48
I19
sg49
I23
sbag0
(g44
g2
Ntp3704
Rp3705
(dp3706
g48
I20
sg49
I23
sbag0
(g44
g2
Ntp3707
Rp3708
(dp3709
g48
I21
sg49
I23
sbag0
(g44
g2
Ntp3710
Rp3711
(dp3712
g48
I3
sg49
I24
sbag0
(g44
g2
Ntp3713
Rp3714
(dp3715
g48
I4
sg49
I24
sbag0
(g44
g2
Ntp3716
Rp3717
(dp3718
g48
I5
sg49
I24
sbag0
(g44
g2
Ntp3719
Rp3720
(dp3721
g48
I6
sg49
I24
sbag0
(g44
g2
Ntp3722
Rp3723
(dp3724
g48
I7
sg49
I24
sbag0
(g44
g2
Ntp3725
Rp3726
(dp3727
g48
I8
sg49
I24
sbag0
(g44
g2
Ntp3728
Rp3729
(dp3730
g48
I9
sg49
I24
sbag0
(g44
g2
Ntp3731
Rp3732
(dp3733
g48
I10
sg49
I24
sbag0
(g44
g2
Ntp3734
Rp3735
(dp3736
g48
I11
sg49
I24
sbag0
(g44
g2
Ntp3737
Rp3738
(dp3739
g48
I12
sg49
I24
sbag0
(g44
g2
Ntp3740
Rp3741
(dp3742
g48
I13
sg49
I24
sbag0
(g44
g2
Ntp3743
Rp3744
(dp3745
g48
I14
sg49
I24
sbag0
(g44
g2
Ntp3746
Rp3747
(dp3748
g48
I15
sg49
I24
sbag0
(g44
g2
Ntp3749
Rp3750
(dp3751
g48
I16
sg49
I24
sbag0
(g44
g2
Ntp3752
Rp3753
(dp3754
g48
I17
sg49
I24
sbag0
(g44
g2
Ntp3755
Rp3756
(dp3757
g48
I18
sg49
I24
sbag0
(g44
g2
Ntp3758
Rp3759
(dp3760
g48
I19
sg49
I24
sbag0
(g44
g2
Ntp3761
Rp3762
(dp3763
g48
I20
sg49
I24
sbag0
(g44
g2
Ntp3764
Rp3765
(dp3766
g48
I21
sg49
I24
sbag0
(g44
g2
Ntp3767
Rp3768
(dp3769
g48
I3
sg49
I25
sbag0
(g44
g2
Ntp3770
Rp3771
(dp3772
g48
I4
sg49
I25
sbag0
(g44
g2
Ntp3773
Rp3774
(dp3775
g48
I5
sg49
I25
sbag0
(g44
g2
Ntp3776
Rp3777
(dp3778
g48
I6
sg49
I25
sbag0
(g44
g2
Ntp3779
Rp3780
(dp3781
g48
I7
sg49
I25
sbag0
(g44
g2
Ntp3782
Rp3783
(dp3784
g48
I8
sg49
I25
sbag0
(g44
g2
Ntp3785
Rp3786
(dp3787
g48
I9
sg49
I25
sbag0
(g44
g2
Ntp3788
Rp3789
(dp3790
g48
I10
sg49
I25
sbag0
(g44
g2
Ntp3791
Rp3792
(dp3793
g48
I11
sg49
I25
sbag0
(g44
g2
Ntp3794
Rp3795
(dp3796
g48
I12
sg49
I25
sbag0
(g44
g2
Ntp3797
Rp3798
(dp3799
g48
I13
sg49
I25
sbag0
(g44
g2
Ntp3800
Rp3801
(dp3802
g48
I14
sg49
I25
sbag0
(g44
g2
Ntp3803
Rp3804
(dp3805
g48
I15
sg49
I25
sbag0
(g44
g2
Ntp3806
Rp3807
(dp3808
g48
I16
sg49
I25
sbag0
(g44
g2
Ntp3809
Rp3810
(dp3811
g48
I17
sg49
I25
sbag0
(g44
g2
Ntp3812
Rp3813
(dp3814
g48
I18
sg49
I25
sbag0
(g44
g2
Ntp3815
Rp3816
(dp3817
g48
I19
sg49
I25
sbag0
(g44
g2
Ntp3818
Rp3819
(dp3820
g48
I20
sg49
I25
sbag0
(g44
g2
Ntp3821
Rp3822
(dp3823
g48
I21
sg49
I25
sbag0
(g44
g2
Ntp3824
Rp3825
(dp3826
g48
I3
sg49
I26
sbag0
(g44
g2
Ntp3827
Rp3828
(dp3829
g48
I4
sg49
I26
sbag0
(g44
g2
Ntp3830
Rp3831
(dp3832
g48
I5
sg49
I26
sbag0
(g44
g2
Ntp3833
Rp3834
(dp3835
g48
I6
sg49
I26
sbag0
(g44
g2
Ntp3836
Rp3837
(dp3838
g48
I7
sg49
I26
sbag0
(g44
g2
Ntp3839
Rp3840
(dp3841
g48
I8
sg49
I26
sbag0
(g44
g2
Ntp3842
Rp3843
(dp3844
g48
I9
sg49
I26
sbag0
(g44
g2
Ntp3845
Rp3846
(dp3847
g48
I10
sg49
I26
sbag0
(g44
g2
Ntp3848
Rp3849
(dp3850
g48
I11
sg49
I26
sbag0
(g44
g2
Ntp3851
Rp3852
(dp3853
g48
I12
sg49
I26
sbag0
(g44
g2
Ntp3854
Rp3855
(dp3856
g48
I13
sg49
I26
sbag0
(g44
g2
Ntp3857
Rp3858
(dp3859
g48
I14
sg49
I26
sbag0
(g44
g2
Ntp3860
Rp3861
(dp3862
g48
I15
sg49
I26
sbag0
(g44
g2
Ntp3863
Rp3864
(dp3865
g48
I16
sg49
I26
sbag0
(g44
g2
Ntp3866
Rp3867
(dp3868
g48
I17
sg49
I26
sbag0
(g44
g2
Ntp3869
Rp3870
(dp3871
g48
I18
sg49
I26
sbag0
(g44
g2
Ntp3872
Rp3873
(dp3874
g48
I19
sg49
I26
sbag0
(g44
g2
Ntp3875
Rp3876
(dp3877
g48
I20
sg49
I26
sbag0
(g44
g2
Ntp3878
Rp3879
(dp3880
g48
I21
sg49
I26
sbag0
(g44
g2
Ntp3881
Rp3882
(dp3883
g48
I3
sg49
I27
sbag0
(g44
g2
Ntp3884
Rp3885
(dp3886
g48
I4
sg49
I27
sbag0
(g44
g2
Ntp3887
Rp3888
(dp3889
g48
I5
sg49
I27
sbag0
(g44
g2
Ntp3890
Rp3891
(dp3892
g48
I6
sg49
I27
sbag0
(g44
g2
Ntp3893
Rp3894
(dp3895
g48
I7
sg49
I27
sbag0
(g44
g2
Ntp3896
Rp3897
(dp3898
g48
I8
sg49
I27
sbag0
(g44
g2
Ntp3899
Rp3900
(dp3901
g48
I9
sg49
I27
sbag0
(g44
g2
Ntp3902
Rp3903
(dp3904
g48
I10
sg49
I27
sbag0
(g44
g2
Ntp3905
Rp3906
(dp3907
g48
I11
sg49
I27
sbag0
(g44
g2
Ntp3908
Rp3909
(dp3910
g48
I12
sg49
I27
sbag0
(g44
g2
Ntp3911
Rp3912
(dp3913
g48
I13
sg49
I27
sbag0
(g44
g2
Ntp3914
Rp3915
(dp3916
g48
I14
sg49
I27
sbag0
(g44
g2
Ntp3917
Rp3918
(dp3919
g48
I15
sg49
I27
sbag0
(g44
g2
Ntp3920
Rp3921
(dp3922
g48
I16
sg49
I27
sbag0
(g44
g2
Ntp3923
Rp3924
(dp3925
g48
I17
sg49
I27
sbag0
(g44
g2
Ntp3926
Rp3927
(dp3928
g48
I18
sg49
I27
sbag0
(g44
g2
Ntp3929
Rp3930
(dp3931
g48
I19
sg49
I27
sbag0
(g44
g2
Ntp3932
Rp3933
(dp3934
g48
I20
sg49
I27
sbag0
(g44
g2
Ntp3935
Rp3936
(dp3937
g48
I21
sg49
I27
sbag0
(g44
g2
Ntp3938
Rp3939
(dp3940
g48
I22
sg49
I42
sbag0
(g44
g2
Ntp3941
Rp3942
(dp3943
g48
I23
sg49
I42
sbag0
(g44
g2
Ntp3944
Rp3945
(dp3946
g48
I22
sg49
I43
sbag0
(g44
g2
Ntp3947
Rp3948
(dp3949
g48
I23
sg49
I43
sbag0
(g44
g2
Ntp3950
Rp3951
(dp3952
g48
I22
sg49
I44
sbag0
(g44
g2
Ntp3953
Rp3954
(dp3955
g48
I23
sg49
I44
sbag0
(g44
g2
Ntp3956
Rp3957
(dp3958
g48
I22
sg49
I45
sbag0
(g44
g2
Ntp3959
Rp3960
(dp3961
g48
I23
sg49
I45
sbag0
(g44
g2
Ntp3962
Rp3963
(dp3964
g48
I22
sg49
I46
sbag0
(g44
g2
Ntp3965
Rp3966
(dp3967
g48
I23
sg49
I46
sbag0
(g44
g2
Ntp3968
Rp3969
(dp3970
g48
I22
sg49
I47
sbag0
(g44
g2
Ntp3971
Rp3972
(dp3973
g48
I23
sg49
I47
sbag0
(g44
g2
Ntp3974
Rp3975
(dp3976
g48
I22
sg49
I48
sbag0
(g44
g2
Ntp3977
Rp3978
(dp3979
g48
I23
sg49
I48
sbag0
(g44
g2
Ntp3980
Rp3981
(dp3982
g48
I22
sg49
I49
sbag0
(g44
g2
Ntp3983
Rp3984
(dp3985
g48
I23
sg49
I49
sbag0
(g44
g2
Ntp3986
Rp3987
(dp3988
g48
I22
sg49
I50
sbag0
(g44
g2
Ntp3989
Rp3990
(dp3991
g48
I23
sg49
I50
sbag0
(g44
g2
Ntp3992
Rp3993
(dp3994
g48
I22
sg49
I59
sbag0
(g44
g2
Ntp3995
Rp3996
(dp3997
g48
I23
sg49
I59
sbag0
(g44
g2
Ntp3998
Rp3999
(dp4000
g48
I22
sg49
I60
sbag0
(g44
g2
Ntp4001
Rp4002
(dp4003
g48
I23
sg49
I60
sbag0
(g44
g2
Ntp4004
Rp4005
(dp4006
g48
I22
sg49
I61
sbag0
(g44
g2
Ntp4007
Rp4008
(dp4009
g48
I23
sg49
I61
sbag0
(g44
g2
Ntp4010
Rp4011
(dp4012
g48
I22
sg49
I62
sbag0
(g44
g2
Ntp4013
Rp4014
(dp4015
g48
I23
sg49
I62
sbag0
(g44
g2
Ntp4016
Rp4017
(dp4018
g48
I0
sg49
I51
sbag0
(g44
g2
Ntp4019
Rp4020
(dp4021
g48
I1
sg49
I51
sbag0
(g44
g2
Ntp4022
Rp4023
(dp4024
g48
I2
sg49
I51
sbag0
(g44
g2
Ntp4025
Rp4026
(dp4027
g48
I3
sg49
I51
sbag0
(g44
g2
Ntp4028
Rp4029
(dp4030
g48
I4
sg49
I51
sbag0
(g44
g2
Ntp4031
Rp4032
(dp4033
g48
I5
sg49
I51
sbag0
(g44
g2
Ntp4034
Rp4035
(dp4036
g48
I6
sg49
I51
sbag0
(g44
g2
Ntp4037
Rp4038
(dp4039
g48
I7
sg49
I51
sbag0
(g44
g2
Ntp4040
Rp4041
(dp4042
g48
I8
sg49
I51
sbag0
(g44
g2
Ntp4043
Rp4044
(dp4045
g48
I9
sg49
I51
sbag0
(g44
g2
Ntp4046
Rp4047
(dp4048
g48
I10
sg49
I51
sbag0
(g44
g2
Ntp4049
Rp4050
(dp4051
g48
I11
sg49
I51
sbag0
(g44
g2
Ntp4052
Rp4053
(dp4054
g48
I12
sg49
I51
sbag0
(g44
g2
Ntp4055
Rp4056
(dp4057
g48
I13
sg49
I51
sbag0
(g44
g2
Ntp4058
Rp4059
(dp4060
g48
I14
sg49
I51
sbag0
(g44
g2
Ntp4061
Rp4062
(dp4063
g48
I15
sg49
I51
sbag0
(g44
g2
Ntp4064
Rp4065
(dp4066
g48
I16
sg49
I51
sbag0
(g44
g2
Ntp4067
Rp4068
(dp4069
g48
I17
sg49
I51
sbag0
(g44
g2
Ntp4070
Rp4071
(dp4072
g48
I18
sg49
I51
sbag0
(g44
g2
Ntp4073
Rp4074
(dp4075
g48
I19
sg49
I51
sbag0
(g44
g2
Ntp4076
Rp4077
(dp4078
g48
I20
sg49
I51
sbag0
(g44
g2
Ntp4079
Rp4080
(dp4081
g48
I21
sg49
I51
sbag0
(g44
g2
Ntp4082
Rp4083
(dp4084
g48
I22
sg49
I51
sbag0
(g44
g2
Ntp4085
Rp4086
(dp4087
g48
I23
sg49
I51
sbag0
(g44
g2
Ntp4088
Rp4089
(dp4090
g48
I0
sg49
I52
sbag0
(g44
g2
Ntp4091
Rp4092
(dp4093
g48
I1
sg49
I52
sbag0
(g44
g2
Ntp4094
Rp4095
(dp4096
g48
I2
sg49
I52
sbag0
(g44
g2
Ntp4097
Rp4098
(dp4099
g48
I3
sg49
I52
sbag0
(g44
g2
Ntp4100
Rp4101
(dp4102
g48
I4
sg49
I52
sbag0
(g44
g2
Ntp4103
Rp4104
(dp4105
g48
I5
sg49
I52
sbag0
(g44
g2
Ntp4106
Rp4107
(dp4108
g48
I6
sg49
I52
sbag0
(g44
g2
Ntp4109
Rp4110
(dp4111
g48
I7
sg49
I52
sbag0
(g44
g2
Ntp4112
Rp4113
(dp4114
g48
I8
sg49
I52
sbag0
(g44
g2
Ntp4115
Rp4116
(dp4117
g48
I9
sg49
I52
sbag0
(g44
g2
Ntp4118
Rp4119
(dp4120
g48
I10
sg49
I52
sbag0
(g44
g2
Ntp4121
Rp4122
(dp4123
g48
I11
sg49
I52
sbag0
(g44
g2
Ntp4124
Rp4125
(dp4126
g48
I12
sg49
I52
sbag0
(g44
g2
Ntp4127
Rp4128
(dp4129
g48
I13
sg49
I52
sbag0
(g44
g2
Ntp4130
Rp4131
(dp4132
g48
I14
sg49
I52
sbag0
(g44
g2
Ntp4133
Rp4134
(dp4135
g48
I15
sg49
I52
sbag0
(g44
g2
Ntp4136
Rp4137
(dp4138
g48
I16
sg49
I52
sbag0
(g44
g2
Ntp4139
Rp4140
(dp4141
g48
I17
sg49
I52
sbag0
(g44
g2
Ntp4142
Rp4143
(dp4144
g48
I18
sg49
I52
sbag0
(g44
g2
Ntp4145
Rp4146
(dp4147
g48
I19
sg49
I52
sbag0
(g44
g2
Ntp4148
Rp4149
(dp4150
g48
I20
sg49
I52
sbag0
(g44
g2
Ntp4151
Rp4152
(dp4153
g48
I21
sg49
I52
sbag0
(g44
g2
Ntp4154
Rp4155
(dp4156
g48
I22
sg49
I52
sbag0
(g44
g2
Ntp4157
Rp4158
(dp4159
g48
I23
sg49
I52
sbag0
(g44
g2
Ntp4160
Rp4161
(dp4162
g48
I0
sg49
I53
sbag0
(g44
g2
Ntp4163
Rp4164
(dp4165
g48
I1
sg49
I53
sbag0
(g44
g2
Ntp4166
Rp4167
(dp4168
g48
I2
sg49
I53
sbag0
(g44
g2
Ntp4169
Rp4170
(dp4171
g48
I3
sg49
I53
sbag0
(g44
g2
Ntp4172
Rp4173
(dp4174
g48
I4
sg49
I53
sbag0
(g44
g2
Ntp4175
Rp4176
(dp4177
g48
I5
sg49
I53
sbag0
(g44
g2
Ntp4178
Rp4179
(dp4180
g48
I6
sg49
I53
sbag0
(g44
g2
Ntp4181
Rp4182
(dp4183
g48
I7
sg49
I53
sbag0
(g44
g2
Ntp4184
Rp4185
(dp4186
g48
I8
sg49
I53
sbag0
(g44
g2
Ntp4187
Rp4188
(dp4189
g48
I9
sg49
I53
sbag0
(g44
g2
Ntp4190
Rp4191
(dp4192
g48
I10
sg49
I53
sbag0
(g44
g2
Ntp4193
Rp4194
(dp4195
g48
I11
sg49
I53
sbag0
(g44
g2
Ntp4196
Rp4197
(dp4198
g48
I12
sg49
I53
sbag0
(g44
g2
Ntp4199
Rp4200
(dp4201
g48
I13
sg49
I53
sbag0
(g44
g2
Ntp4202
Rp4203
(dp4204
g48
I14
sg49
I53
sbag0
(g44
g2
Ntp4205
Rp4206
(dp4207
g48
I15
sg49
I53
sbag0
(g44
g2
Ntp4208
Rp4209
(dp4210
g48
I16
sg49
I53
sbag0
(g44
g2
Ntp4211
Rp4212
(dp4213
g48
I17
sg49
I53
sbag0
(g44
g2
Ntp4214
Rp4215
(dp4216
g48
I18
sg49
I53
sbag0
(g44
g2
Ntp4217
Rp4218
(dp4219
g48
I19
sg49
I53
sbag0
(g44
g2
Ntp4220
Rp4221
(dp4222
g48
I20
sg49
I53
sbag0
(g44
g2
Ntp4223
Rp4224
(dp4225
g48
I21
sg49
I53
sbag0
(g44
g2
Ntp4226
Rp4227
(dp4228
g48
I22
sg49
I53
sbag0
(g44
g2
Ntp4229
Rp4230
(dp4231
g48
I23
sg49
I53
sbag0
(g44
g2
Ntp4232
Rp4233
(dp4234
g48
I0
sg49
I54
sbag0
(g44
g2
Ntp4235
Rp4236
(dp4237
g48
I1
sg49
I54
sbag0
(g44
g2
Ntp4238
Rp4239
(dp4240
g48
I2
sg49
I54
sbag0
(g44
g2
Ntp4241
Rp4242
(dp4243
g48
I3
sg49
I54
sbag0
(g44
g2
Ntp4244
Rp4245
(dp4246
g48
I4
sg49
I54
sbag0
(g44
g2
Ntp4247
Rp4248
(dp4249
g48
I5
sg49
I54
sbag0
(g44
g2
Ntp4250
Rp4251
(dp4252
g48
I6
sg49
I54
sbag0
(g44
g2
Ntp4253
Rp4254
(dp4255
g48
I7
sg49
I54
sbag0
(g44
g2
Ntp4256
Rp4257
(dp4258
g48
I8
sg49
I54
sbag0
(g44
g2
Ntp4259
Rp4260
(dp4261
g48
I9
sg49
I54
sbag0
(g44
g2
Ntp4262
Rp4263
(dp4264
g48
I10
sg49
I54
sbag0
(g44
g2
Ntp4265
Rp4266
(dp4267
g48
I11
sg49
I54
sbag0
(g44
g2
Ntp4268
Rp4269
(dp4270
g48
I12
sg49
I54
sbag0
(g44
g2
Ntp4271
Rp4272
(dp4273
g48
I13
sg49
I54
sbag0
(g44
g2
Ntp4274
Rp4275
(dp4276
g48
I14
sg49
I54
sbag0
(g44
g2
Ntp4277
Rp4278
(dp4279
g48
I15
sg49
I54
sbag0
(g44
g2
Ntp4280
Rp4281
(dp4282
g48
I16
sg49
I54
sbag0
(g44
g2
Ntp4283
Rp4284
(dp4285
g48
I17
sg49
I54
sbag0
(g44
g2
Ntp4286
Rp4287
(dp4288
g48
I18
sg49
I54
sbag0
(g44
g2
Ntp4289
Rp4290
(dp4291
g48
I19
sg49
I54
sbag0
(g44
g2
Ntp4292
Rp4293
(dp4294
g48
I20
sg49
I54
sbag0
(g44
g2
Ntp4295
Rp4296
(dp4297
g48
I21
sg49
I54
sbag0
(g44
g2
Ntp4298
Rp4299
(dp4300
g48
I22
sg49
I54
sbag0
(g44
g2
Ntp4301
Rp4302
(dp4303
g48
I23
sg49
I54
sbag0
(g44
g2
Ntp4304
Rp4305
(dp4306
g48
I0
sg49
I55
sbag0
(g44
g2
Ntp4307
Rp4308
(dp4309
g48
I1
sg49
I55
sbag0
(g44
g2
Ntp4310
Rp4311
(dp4312
g48
I2
sg49
I55
sbag0
(g44
g2
Ntp4313
Rp4314
(dp4315
g48
I3
sg49
I55
sbag0
(g44
g2
Ntp4316
Rp4317
(dp4318
g48
I4
sg49
I55
sbag0
(g44
g2
Ntp4319
Rp4320
(dp4321
g48
I5
sg49
I55
sbag0
(g44
g2
Ntp4322
Rp4323
(dp4324
g48
I6
sg49
I55
sbag0
(g44
g2
Ntp4325
Rp4326
(dp4327
g48
I7
sg49
I55
sbag0
(g44
g2
Ntp4328
Rp4329
(dp4330
g48
I8
sg49
I55
sbag0
(g44
g2
Ntp4331
Rp4332
(dp4333
g48
I9
sg49
I55
sbag0
(g44
g2
Ntp4334
Rp4335
(dp4336
g48
I10
sg49
I55
sbag0
(g44
g2
Ntp4337
Rp4338
(dp4339
g48
I11
sg49
I55
sbag0
(g44
g2
Ntp4340
Rp4341
(dp4342
g48
I12
sg49
I55
sbag0
(g44
g2
Ntp4343
Rp4344
(dp4345
g48
I13
sg49
I55
sbag0
(g44
g2
Ntp4346
Rp4347
(dp4348
g48
I14
sg49
I55
sbag0
(g44
g2
Ntp4349
Rp4350
(dp4351
g48
I15
sg49
I55
sbag0
(g44
g2
Ntp4352
Rp4353
(dp4354
g48
I16
sg49
I55
sbag0
(g44
g2
Ntp4355
Rp4356
(dp4357
g48
I17
sg49
I55
sbag0
(g44
g2
Ntp4358
Rp4359
(dp4360
g48
I18
sg49
I55
sbag0
(g44
g2
Ntp4361
Rp4362
(dp4363
g48
I19
sg49
I55
sbag0
(g44
g2
Ntp4364
Rp4365
(dp4366
g48
I20
sg49
I55
sbag0
(g44
g2
Ntp4367
Rp4368
(dp4369
g48
I21
sg49
I55
sbag0
(g44
g2
Ntp4370
Rp4371
(dp4372
g48
I22
sg49
I55
sbag0
(g44
g2
Ntp4373
Rp4374
(dp4375
g48
I23
sg49
I55
sbag0
(g44
g2
Ntp4376
Rp4377
(dp4378
g48
I0
sg49
I56
sbag0
(g44
g2
Ntp4379
Rp4380
(dp4381
g48
I1
sg49
I56
sbag0
(g44
g2
Ntp4382
Rp4383
(dp4384
g48
I2
sg49
I56
sbag0
(g44
g2
Ntp4385
Rp4386
(dp4387
g48
I3
sg49
I56
sbag0
(g44
g2
Ntp4388
Rp4389
(dp4390
g48
I4
sg49
I56
sbag0
(g44
g2
Ntp4391
Rp4392
(dp4393
g48
I5
sg49
I56
sbag0
(g44
g2
Ntp4394
Rp4395
(dp4396
g48
I6
sg49
I56
sbag0
(g44
g2
Ntp4397
Rp4398
(dp4399
g48
I7
sg49
I56
sbag0
(g44
g2
Ntp4400
Rp4401
(dp4402
g48
I8
sg49
I56
sbag0
(g44
g2
Ntp4403
Rp4404
(dp4405
g48
I9
sg49
I56
sbag0
(g44
g2
Ntp4406
Rp4407
(dp4408
g48
I10
sg49
I56
sbag0
(g44
g2
Ntp4409
Rp4410
(dp4411
g48
I11
sg49
I56
sbag0
(g44
g2
Ntp4412
Rp4413
(dp4414
g48
I12
sg49
I56
sbag0
(g44
g2
Ntp4415
Rp4416
(dp4417
g48
I13
sg49
I56
sbag0
(g44
g2
Ntp4418
Rp4419
(dp4420
g48
I14
sg49
I56
sbag0
(g44
g2
Ntp4421
Rp4422
(dp4423
g48
I15
sg49
I56
sbag0
(g44
g2
Ntp4424
Rp4425
(dp4426
g48
I16
sg49
I56
sbag0
(g44
g2
Ntp4427
Rp4428
(dp4429
g48
I17
sg49
I56
sbag0
(g44
g2
Ntp4430
Rp4431
(dp4432
g48
I18
sg49
I56
sbag0
(g44
g2
Ntp4433
Rp4434
(dp4435
g48
I19
sg49
I56
sbag0
(g44
g2
Ntp4436
Rp4437
(dp4438
g48
I20
sg49
I56
sbag0
(g44
g2
Ntp4439
Rp4440
(dp4441
g48
I21
sg49
I56
sbag0
(g44
g2
Ntp4442
Rp4443
(dp4444
g48
I22
sg49
I56
sbag0
(g44
g2
Ntp4445
Rp4446
(dp4447
g48
I23
sg49
I56
sbag0
(g44
g2
Ntp4448
Rp4449
(dp4450
g48
I0
sg49
I57
sbag0
(g44
g2
Ntp4451
Rp4452
(dp4453
g48
I1
sg49
I57
sbag0
(g44
g2
Ntp4454
Rp4455
(dp4456
g48
I2
sg49
I57
sbag0
(g44
g2
Ntp4457
Rp4458
(dp4459
g48
I3
sg49
I57
sbag0
(g44
g2
Ntp4460
Rp4461
(dp4462
g48
I4
sg49
I57
sbag0
(g44
g2
Ntp4463
Rp4464
(dp4465
g48
I5
sg49
I57
sbag0
(g44
g2
Ntp4466
Rp4467
(dp4468
g48
I6
sg49
I57
sbag0
(g44
g2
Ntp4469
Rp4470
(dp4471
g48
I7
sg49
I57
sbag0
(g44
g2
Ntp4472
Rp4473
(dp4474
g48
I8
sg49
I57
sbag0
(g44
g2
Ntp4475
Rp4476
(dp4477
g48
I9
sg49
I57
sbag0
(g44
g2
Ntp4478
Rp4479
(dp4480
g48
I10
sg49
I57
sbag0
(g44
g2
Ntp4481
Rp4482
(dp4483
g48
I11
sg49
I57
sbag0
(g44
g2
Ntp4484
Rp4485
(dp4486
g48
I12
sg49
I57
sbag0
(g44
g2
Ntp4487
Rp4488
(dp4489
g48
I13
sg49
I57
sbag0
(g44
g2
Ntp4490
Rp4491
(dp4492
g48
I14
sg49
I57
sbag0
(g44
g2
Ntp4493
Rp4494
(dp4495
g48
I15
sg49
I57
sbag0
(g44
g2
Ntp4496
Rp4497
(dp4498
g48
I16
sg49
I57
sbag0
(g44
g2
Ntp4499
Rp4500
(dp4501
g48
I17
sg49
I57
sbag0
(g44
g2
Ntp4502
Rp4503
(dp4504
g48
I18
sg49
I57
sbag0
(g44
g2
Ntp4505
Rp4506
(dp4507
g48
I19
sg49
I57
sbag0
(g44
g2
Ntp4508
Rp4509
(dp4510
g48
I20
sg49
I57
sbag0
(g44
g2
Ntp4511
Rp4512
(dp4513
g48
I21
sg49
I57
sbag0
(g44
g2
Ntp4514
Rp4515
(dp4516
g48
I22
sg49
I57
sbag0
(g44
g2
Ntp4517
Rp4518
(dp4519
g48
I23
sg49
I57
sbag0
(g44
g2
Ntp4520
Rp4521
(dp4522
g48
I0
sg49
I58
sbag0
(g44
g2
Ntp4523
Rp4524
(dp4525
g48
I1
sg49
I58
sbag0
(g44
g2
Ntp4526
Rp4527
(dp4528
g48
I2
sg49
I58
sbag0
(g44
g2
Ntp4529
Rp4530
(dp4531
g48
I3
sg49
I58
sbag0
(g44
g2
Ntp4532
Rp4533
(dp4534
g48
I4
sg49
I58
sbag0
(g44
g2
Ntp4535
Rp4536
(dp4537
g48
I5
sg49
I58
sbag0
(g44
g2
Ntp4538
Rp4539
(dp4540
g48
I6
sg49
I58
sbag0
(g44
g2
Ntp4541
Rp4542
(dp4543
g48
I7
sg49
I58
sbag0
(g44
g2
Ntp4544
Rp4545
(dp4546
g48
I8
sg49
I58
sbag0
(g44
g2
Ntp4547
Rp4548
(dp4549
g48
I9
sg49
I58
sbag0
(g44
g2
Ntp4550
Rp4551
(dp4552
g48
I10
sg49
I58
sbag0
(g44
g2
Ntp4553
Rp4554
(dp4555
g48
I11
sg49
I58
sbag0
(g44
g2
Ntp4556
Rp4557
(dp4558
g48
I12
sg49
I58
sbag0
(g44
g2
Ntp4559
Rp4560
(dp4561
g48
I13
sg49
I58
sbag0
(g44
g2
Ntp4562
Rp4563
(dp4564
g48
I14
sg49
I58
sbag0
(g44
g2
Ntp4565
Rp4566
(dp4567
g48
I15
sg49
I58
sbag0
(g44
g2
Ntp4568
Rp4569
(dp4570
g48
I16
sg49
I58
sbag0
(g44
g2
Ntp4571
Rp4572
(dp4573
g48
I17
sg49
I58
sbag0
(g44
g2
Ntp4574
Rp4575
(dp4576
g48
I18
sg49
I58
sbag0
(g44
g2
Ntp4577
Rp4578
(dp4579
g48
I19
sg49
I58
sbag0
(g44
g2
Ntp4580
Rp4581
(dp4582
g48
I20
sg49
I58
sbag0
(g44
g2
Ntp4583
Rp4584
(dp4585
g48
I21
sg49
I58
sbag0
(g44
g2
Ntp4586
Rp4587
(dp4588
g48
I22
sg49
I58
sbag0
(g44
g2
Ntp4589
Rp4590
(dp4591
g48
I23
sg49
I58
sbag0
(g44
g2
Ntp4592
Rp4593
(dp4594
g48
I27
sg49
I42
sbag0
(g44
g2
Ntp4595
Rp4596
(dp4597
g48
I28
sg49
I42
sbag0
(g44
g2
Ntp4598
Rp4599
(dp4600
g48
I27
sg49
I43
sbag0
(g44
g2
Ntp4601
Rp4602
(dp4603
g48
I28
sg49
I43
sbag0
(g44
g2
Ntp4604
Rp4605
(dp4606
g48
I27
sg49
I44
sbag0
(g44
g2
Ntp4607
Rp4608
(dp4609
g48
I28
sg49
I44
sbag0
(g44
g2
Ntp4610
Rp4611
(dp4612
g48
I27
sg49
I45
sbag0
(g44
g2
Ntp4613
Rp4614
(dp4615
g48
I28
sg49
I45
sbag0
(g44
g2
Ntp4616
Rp4617
(dp4618
g48
I27
sg49
I46
sbag0
(g44
g2
Ntp4619
Rp4620
(dp4621
g48
I28
sg49
I46
sbag0
(g44
g2
Ntp4622
Rp4623
(dp4624
g48
I27
sg49
I47
sbag0
(g44
g2
Ntp4625
Rp4626
(dp4627
g48
I28
sg49
I47
sbag0
(g44
g2
Ntp4628
Rp4629
(dp4630
g48
I27
sg49
I48
sbag0
(g44
g2
Ntp4631
Rp4632
(dp4633
g48
I28
sg49
I48
sbag0
(g44
g2
Ntp4634
Rp4635
(dp4636
g48
I27
sg49
I49
sbag0
(g44
g2
Ntp4637
Rp4638
(dp4639
g48
I28
sg49
I49
sbag0
(g44
g2
Ntp4640
Rp4641
(dp4642
g48
I27
sg49
I50
sbag0
(g44
g2
Ntp4643
Rp4644
(dp4645
g48
I28
sg49
I50
sbag0
(g44
g2
Ntp4646
Rp4647
(dp4648
g48
I27
sg49
I51
sbag0
(g44
g2
Ntp4649
Rp4650
(dp4651
g48
I28
sg49
I51
sbag0
(g44
g2
Ntp4652
Rp4653
(dp4654
g48
I27
sg49
I52
sbag0
(g44
g2
Ntp4655
Rp4656
(dp4657
g48
I28
sg49
I52
sbag0
(g44
g2
Ntp4658
Rp4659
(dp4660
g48
I27
sg49
I53
sbag0
(g44
g2
Ntp4661
Rp4662
(dp4663
g48
I28
sg49
I53
sbag0
(g44
g2
Ntp4664
Rp4665
(dp4666
g48
I27
sg49
I54
sbag0
(g44
g2
Ntp4667
Rp4668
(dp4669
g48
I28
sg49
I54
sbag0
(g44
g2
Ntp4670
Rp4671
(dp4672
g48
I27
sg49
I55
sbag0
(g44
g2
Ntp4673
Rp4674
(dp4675
g48
I28
sg49
I55
sbag0
(g44
g2
Ntp4676
Rp4677
(dp4678
g48
I27
sg49
I56
sbag0
(g44
g2
Ntp4679
Rp4680
(dp4681
g48
I28
sg49
I56
sbag0
(g44
g2
Ntp4682
Rp4683
(dp4684
g48
I27
sg49
I57
sbag0
(g44
g2
Ntp4685
Rp4686
(dp4687
g48
I28
sg49
I57
sbag0
(g44
g2
Ntp4688
Rp4689
(dp4690
g48
I27
sg49
I58
sbag0
(g44
g2
Ntp4691
Rp4692
(dp4693
g48
I28
sg49
I58
sbag0
(g44
g2
Ntp4694
Rp4695
(dp4696
g48
I27
sg49
I59
sbag0
(g44
g2
Ntp4697
Rp4698
(dp4699
g48
I28
sg49
I59
sbag0
(g44
g2
Ntp4700
Rp4701
(dp4702
g48
I27
sg49
I60
sbag0
(g44
g2
Ntp4703
Rp4704
(dp4705
g48
I28
sg49
I60
sbag0
(g44
g2
Ntp4706
Rp4707
(dp4708
g48
I27
sg49
I61
sbag0
(g44
g2
Ntp4709
Rp4710
(dp4711
g48
I28
sg49
I61
sbag0
(g44
g2
Ntp4712
Rp4713
(dp4714
g48
I27
sg49
I62
sbag0
(g44
g2
Ntp4715
Rp4716
(dp4717
g48
I28
sg49
I62
sbag0
(g44
g2
Ntp4718
Rp4719
(dp4720
g48
I29
sg49
I51
sbag0
(g44
g2
Ntp4721
Rp4722
(dp4723
g48
I30
sg49
I51
sbag0
(g44
g2
Ntp4724
Rp4725
(dp4726
g48
I31
sg49
I51
sbag0
(g44
g2
Ntp4727
Rp4728
(dp4729
g48
I32
sg49
I51
sbag0
(g44
g2
Ntp4730
Rp4731
(dp4732
g48
I33
sg49
I51
sbag0
(g44
g2
Ntp4733
Rp4734
(dp4735
g48
I34
sg49
I51
sbag0
(g44
g2
Ntp4736
Rp4737
(dp4738
g48
I35
sg49
I51
sbag0
(g44
g2
Ntp4739
Rp4740
(dp4741
g48
I36
sg49
I51
sbag0
(g44
g2
Ntp4742
Rp4743
(dp4744
g48
I37
sg49
I51
sbag0
(g44
g2
Ntp4745
Rp4746
(dp4747
g48
I38
sg49
I51
sbag0
(g44
g2
Ntp4748
Rp4749
(dp4750
g48
I39
sg49
I51
sbag0
(g44
g2
Ntp4751
Rp4752
(dp4753
g48
I40
sg49
I51
sbag0
(g44
g2
Ntp4754
Rp4755
(dp4756
g48
I41
sg49
I51
sbag0
(g44
g2
Ntp4757
Rp4758
(dp4759
g48
I42
sg49
I51
sbag0
(g44
g2
Ntp4760
Rp4761
(dp4762
g48
I43
sg49
I51
sbag0
(g44
g2
Ntp4763
Rp4764
(dp4765
g48
I44
sg49
I51
sbag0
(g44
g2
Ntp4766
Rp4767
(dp4768
g48
I45
sg49
I51
sbag0
(g44
g2
Ntp4769
Rp4770
(dp4771
g48
I46
sg49
I51
sbag0
(g44
g2
Ntp4772
Rp4773
(dp4774
g48
I47
sg49
I51
sbag0
(g44
g2
Ntp4775
Rp4776
(dp4777
g48
I48
sg49
I51
sbag0
(g44
g2
Ntp4778
Rp4779
(dp4780
g48
I49
sg49
I51
sbag0
(g44
g2
Ntp4781
Rp4782
(dp4783
g48
I29
sg49
I52
sbag0
(g44
g2
Ntp4784
Rp4785
(dp4786
g48
I30
sg49
I52
sbag0
(g44
g2
Ntp4787
Rp4788
(dp4789
g48
I31
sg49
I52
sbag0
(g44
g2
Ntp4790
Rp4791
(dp4792
g48
I32
sg49
I52
sbag0
(g44
g2
Ntp4793
Rp4794
(dp4795
g48
I33
sg49
I52
sbag0
(g44
g2
Ntp4796
Rp4797
(dp4798
g48
I34
sg49
I52
sbag0
(g44
g2
Ntp4799
Rp4800
(dp4801
g48
I35
sg49
I52
sbag0
(g44
g2
Ntp4802
Rp4803
(dp4804
g48
I36
sg49
I52
sbag0
(g44
g2
Ntp4805
Rp4806
(dp4807
g48
I37
sg49
I52
sbag0
(g44
g2
Ntp4808
Rp4809
(dp4810
g48
I38
sg49
I52
sbag0
(g44
g2
Ntp4811
Rp4812
(dp4813
g48
I39
sg49
I52
sbag0
(g44
g2
Ntp4814
Rp4815
(dp4816
g48
I40
sg49
I52
sbag0
(g44
g2
Ntp4817
Rp4818
(dp4819
g48
I41
sg49
I52
sbag0
(g44
g2
Ntp4820
Rp4821
(dp4822
g48
I42
sg49
I52
sbag0
(g44
g2
Ntp4823
Rp4824
(dp4825
g48
I43
sg49
I52
sbag0
(g44
g2
Ntp4826
Rp4827
(dp4828
g48
I44
sg49
I52
sbag0
(g44
g2
Ntp4829
Rp4830
(dp4831
g48
I45
sg49
I52
sbag0
(g44
g2
Ntp4832
Rp4833
(dp4834
g48
I46
sg49
I52
sbag0
(g44
g2
Ntp4835
Rp4836
(dp4837
g48
I47
sg49
I52
sbag0
(g44
g2
Ntp4838
Rp4839
(dp4840
g48
I48
sg49
I52
sbag0
(g44
g2
Ntp4841
Rp4842
(dp4843
g48
I49
sg49
I52
sbag0
(g44
g2
Ntp4844
Rp4845
(dp4846
g48
I29
sg49
I53
sbag0
(g44
g2
Ntp4847
Rp4848
(dp4849
g48
I30
sg49
I53
sbag0
(g44
g2
Ntp4850
Rp4851
(dp4852
g48
I31
sg49
I53
sbag0
(g44
g2
Ntp4853
Rp4854
(dp4855
g48
I32
sg49
I53
sbag0
(g44
g2
Ntp4856
Rp4857
(dp4858
g48
I33
sg49
I53
sbag0
(g44
g2
Ntp4859
Rp4860
(dp4861
g48
I34
sg49
I53
sbag0
(g44
g2
Ntp4862
Rp4863
(dp4864
g48
I35
sg49
I53
sbag0
(g44
g2
Ntp4865
Rp4866
(dp4867
g48
I36
sg49
I53
sbag0
(g44
g2
Ntp4868
Rp4869
(dp4870
g48
I37
sg49
I53
sbag0
(g44
g2
Ntp4871
Rp4872
(dp4873
g48
I38
sg49
I53
sbag0
(g44
g2
Ntp4874
Rp4875
(dp4876
g48
I39
sg49
I53
sbag0
(g44
g2
Ntp4877
Rp4878
(dp4879
g48
I40
sg49
I53
sbag0
(g44
g2
Ntp4880
Rp4881
(dp4882
g48
I41
sg49
I53
sbag0
(g44
g2
Ntp4883
Rp4884
(dp4885
g48
I42
sg49
I53
sbag0
(g44
g2
Ntp4886
Rp4887
(dp4888
g48
I43
sg49
I53
sbag0
(g44
g2
Ntp4889
Rp4890
(dp4891
g48
I44
sg49
I53
sbag0
(g44
g2
Ntp4892
Rp4893
(dp4894
g48
I45
sg49
I53
sbag0
(g44
g2
Ntp4895
Rp4896
(dp4897
g48
I46
sg49
I53
sbag0
(g44
g2
Ntp4898
Rp4899
(dp4900
g48
I47
sg49
I53
sbag0
(g44
g2
Ntp4901
Rp4902
(dp4903
g48
I48
sg49
I53
sbag0
(g44
g2
Ntp4904
Rp4905
(dp4906
g48
I49
sg49
I53
sbag0
(g44
g2
Ntp4907
Rp4908
(dp4909
g48
I29
sg49
I54
sbag0
(g44
g2
Ntp4910
Rp4911
(dp4912
g48
I30
sg49
I54
sbag0
(g44
g2
Ntp4913
Rp4914
(dp4915
g48
I31
sg49
I54
sbag0
(g44
g2
Ntp4916
Rp4917
(dp4918
g48
I32
sg49
I54
sbag0
(g44
g2
Ntp4919
Rp4920
(dp4921
g48
I33
sg49
I54
sbag0
(g44
g2
Ntp4922
Rp4923
(dp4924
g48
I34
sg49
I54
sbag0
(g44
g2
Ntp4925
Rp4926
(dp4927
g48
I35
sg49
I54
sbag0
(g44
g2
Ntp4928
Rp4929
(dp4930
g48
I36
sg49
I54
sbag0
(g44
g2
Ntp4931
Rp4932
(dp4933
g48
I37
sg49
I54
sbag0
(g44
g2
Ntp4934
Rp4935
(dp4936
g48
I38
sg49
I54
sbag0
(g44
g2
Ntp4937
Rp4938
(dp4939
g48
I39
sg49
I54
sbag0
(g44
g2
Ntp4940
Rp4941
(dp4942
g48
I40
sg49
I54
sbag0
(g44
g2
Ntp4943
Rp4944
(dp4945
g48
I41
sg49
I54
sbag0
(g44
g2
Ntp4946
Rp4947
(dp4948
g48
I42
sg49
I54
sbag0
(g44
g2
Ntp4949
Rp4950
(dp4951
g48
I43
sg49
I54
sbag0
(g44
g2
Ntp4952
Rp4953
(dp4954
g48
I44
sg49
I54
sbag0
(g44
g2
Ntp4955
Rp4956
(dp4957
g48
I45
sg49
I54
sbag0
(g44
g2
Ntp4958
Rp4959
(dp4960
g48
I46
sg49
I54
sbag0
(g44
g2
Ntp4961
Rp4962
(dp4963
g48
I47
sg49
I54
sbag0
(g44
g2
Ntp4964
Rp4965
(dp4966
g48
I48
sg49
I54
sbag0
(g44
g2
Ntp4967
Rp4968
(dp4969
g48
I49
sg49
I54
sbag0
(g44
g2
Ntp4970
Rp4971
(dp4972
g48
I29
sg49
I55
sbag0
(g44
g2
Ntp4973
Rp4974
(dp4975
g48
I30
sg49
I55
sbag0
(g44
g2
Ntp4976
Rp4977
(dp4978
g48
I31
sg49
I55
sbag0
(g44
g2
Ntp4979
Rp4980
(dp4981
g48
I32
sg49
I55
sbag0
(g44
g2
Ntp4982
Rp4983
(dp4984
g48
I33
sg49
I55
sbag0
(g44
g2
Ntp4985
Rp4986
(dp4987
g48
I34
sg49
I55
sbag0
(g44
g2
Ntp4988
Rp4989
(dp4990
g48
I35
sg49
I55
sbag0
(g44
g2
Ntp4991
Rp4992
(dp4993
g48
I36
sg49
I55
sbag0
(g44
g2
Ntp4994
Rp4995
(dp4996
g48
I37
sg49
I55
sbag0
(g44
g2
Ntp4997
Rp4998
(dp4999
g48
I38
sg49
I55
sbag0
(g44
g2
Ntp5000
Rp5001
(dp5002
g48
I39
sg49
I55
sbag0
(g44
g2
Ntp5003
Rp5004
(dp5005
g48
I40
sg49
I55
sbag0
(g44
g2
Ntp5006
Rp5007
(dp5008
g48
I41
sg49
I55
sbag0
(g44
g2
Ntp5009
Rp5010
(dp5011
g48
I42
sg49
I55
sbag0
(g44
g2
Ntp5012
Rp5013
(dp5014
g48
I43
sg49
I55
sbag0
(g44
g2
Ntp5015
Rp5016
(dp5017
g48
I44
sg49
I55
sbag0
(g44
g2
Ntp5018
Rp5019
(dp5020
g48
I45
sg49
I55
sbag0
(g44
g2
Ntp5021
Rp5022
(dp5023
g48
I46
sg49
I55
sbag0
(g44
g2
Ntp5024
Rp5025
(dp5026
g48
I47
sg49
I55
sbag0
(g44
g2
Ntp5027
Rp5028
(dp5029
g48
I48
sg49
I55
sbag0
(g44
g2
Ntp5030
Rp5031
(dp5032
g48
I49
sg49
I55
sbag0
(g44
g2
Ntp5033
Rp5034
(dp5035
g48
I29
sg49
I56
sbag0
(g44
g2
Ntp5036
Rp5037
(dp5038
g48
I30
sg49
I56
sbag0
(g44
g2
Ntp5039
Rp5040
(dp5041
g48
I31
sg49
I56
sbag0
(g44
g2
Ntp5042
Rp5043
(dp5044
g48
I32
sg49
I56
sbag0
(g44
g2
Ntp5045
Rp5046
(dp5047
g48
I33
sg49
I56
sbag0
(g44
g2
Ntp5048
Rp5049
(dp5050
g48
I34
sg49
I56
sbag0
(g44
g2
Ntp5051
Rp5052
(dp5053
g48
I35
sg49
I56
sbag0
(g44
g2
Ntp5054
Rp5055
(dp5056
g48
I36
sg49
I56
sbag0
(g44
g2
Ntp5057
Rp5058
(dp5059
g48
I37
sg49
I56
sbag0
(g44
g2
Ntp5060
Rp5061
(dp5062
g48
I38
sg49
I56
sbag0
(g44
g2
Ntp5063
Rp5064
(dp5065
g48
I39
sg49
I56
sbag0
(g44
g2
Ntp5066
Rp5067
(dp5068
g48
I40
sg49
I56
sbag0
(g44
g2
Ntp5069
Rp5070
(dp5071
g48
I41
sg49
I56
sbag0
(g44
g2
Ntp5072
Rp5073
(dp5074
g48
I42
sg49
I56
sbag0
(g44
g2
Ntp5075
Rp5076
(dp5077
g48
I43
sg49
I56
sbag0
(g44
g2
Ntp5078
Rp5079
(dp5080
g48
I44
sg49
I56
sbag0
(g44
g2
Ntp5081
Rp5082
(dp5083
g48
I45
sg49
I56
sbag0
(g44
g2
Ntp5084
Rp5085
(dp5086
g48
I46
sg49
I56
sbag0
(g44
g2
Ntp5087
Rp5088
(dp5089
g48
I47
sg49
I56
sbag0
(g44
g2
Ntp5090
Rp5091
(dp5092
g48
I48
sg49
I56
sbag0
(g44
g2
Ntp5093
Rp5094
(dp5095
g48
I49
sg49
I56
sbag0
(g44
g2
Ntp5096
Rp5097
(dp5098
g48
I29
sg49
I57
sbag0
(g44
g2
Ntp5099
Rp5100
(dp5101
g48
I30
sg49
I57
sbag0
(g44
g2
Ntp5102
Rp5103
(dp5104
g48
I31
sg49
I57
sbag0
(g44
g2
Ntp5105
Rp5106
(dp5107
g48
I32
sg49
I57
sbag0
(g44
g2
Ntp5108
Rp5109
(dp5110
g48
I33
sg49
I57
sbag0
(g44
g2
Ntp5111
Rp5112
(dp5113
g48
I34
sg49
I57
sbag0
(g44
g2
Ntp5114
Rp5115
(dp5116
g48
I35
sg49
I57
sbag0
(g44
g2
Ntp5117
Rp5118
(dp5119
g48
I36
sg49
I57
sbag0
(g44
g2
Ntp5120
Rp5121
(dp5122
g48
I37
sg49
I57
sbag0
(g44
g2
Ntp5123
Rp5124
(dp5125
g48
I38
sg49
I57
sbag0
(g44
g2
Ntp5126
Rp5127
(dp5128
g48
I39
sg49
I57
sbag0
(g44
g2
Ntp5129
Rp5130
(dp5131
g48
I40
sg49
I57
sbag0
(g44
g2
Ntp5132
Rp5133
(dp5134
g48
I41
sg49
I57
sbag0
(g44
g2
Ntp5135
Rp5136
(dp5137
g48
I42
sg49
I57
sbag0
(g44
g2
Ntp5138
Rp5139
(dp5140
g48
I43
sg49
I57
sbag0
(g44
g2
Ntp5141
Rp5142
(dp5143
g48
I44
sg49
I57
sbag0
(g44
g2
Ntp5144
Rp5145
(dp5146
g48
I45
sg49
I57
sbag0
(g44
g2
Ntp5147
Rp5148
(dp5149
g48
I46
sg49
I57
sbag0
(g44
g2
Ntp5150
Rp5151
(dp5152
g48
I47
sg49
I57
sbag0
(g44
g2
Ntp5153
Rp5154
(dp5155
g48
I48
sg49
I57
sbag0
(g44
g2
Ntp5156
Rp5157
(dp5158
g48
I49
sg49
I57
sbag0
(g44
g2
Ntp5159
Rp5160
(dp5161
g48
I29
sg49
I58
sbag0
(g44
g2
Ntp5162
Rp5163
(dp5164
g48
I30
sg49
I58
sbag0
(g44
g2
Ntp5165
Rp5166
(dp5167
g48
I31
sg49
I58
sbag0
(g44
g2
Ntp5168
Rp5169
(dp5170
g48
I32
sg49
I58
sbag0
(g44
g2
Ntp5171
Rp5172
(dp5173
g48
I33
sg49
I58
sbag0
(g44
g2
Ntp5174
Rp5175
(dp5176
g48
I34
sg49
I58
sbag0
(g44
g2
Ntp5177
Rp5178
(dp5179
g48
I35
sg49
I58
sbag0
(g44
g2
Ntp5180
Rp5181
(dp5182
g48
I36
sg49
I58
sbag0
(g44
g2
Ntp5183
Rp5184
(dp5185
g48
I37
sg49
I58
sbag0
(g44
g2
Ntp5186
Rp5187
(dp5188
g48
I38
sg49
I58
sbag0
(g44
g2
Ntp5189
Rp5190
(dp5191
g48
I39
sg49
I58
sbag0
(g44
g2
Ntp5192
Rp5193
(dp5194
g48
I40
sg49
I58
sbag0
(g44
g2
Ntp5195
Rp5196
(dp5197
g48
I41
sg49
I58
sbag0
(g44
g2
Ntp5198
Rp5199
(dp5200
g48
I42
sg49
I58
sbag0
(g44
g2
Ntp5201
Rp5202
(dp5203
g48
I43
sg49
I58
sbag0
(g44
g2
Ntp5204
Rp5205
(dp5206
g48
I44
sg49
I58
sbag0
(g44
g2
Ntp5207
Rp5208
(dp5209
g48
I45
sg49
I58
sbag0
(g44
g2
Ntp5210
Rp5211
(dp5212
g48
I46
sg49
I58
sbag0
(g44
g2
Ntp5213
Rp5214
(dp5215
g48
I47
sg49
I58
sbag0
(g44
g2
Ntp5216
Rp5217
(dp5218
g48
I48
sg49
I58
sbag0
(g44
g2
Ntp5219
Rp5220
(dp5221
g48
I49
sg49
I58
sbag0
(csrc.entities.jailbars
Jailbars
p5222
g2
Ntp5223
Rp5224
(dp5225
S'y'
p5226
I15
sS'x'
p5227
I5
sbag0
(g5222
g2
Ntp5228
Rp5229
(dp5230
g5226
I15
sg5227
I7
sbag0
(g5222
g2
Ntp5231
Rp5232
(dp5233
g5226
I15
sg5227
I9
sbag0
(g5222
g2
Ntp5234
Rp5235
(dp5236
g5226
I38
sg5227
I5
sbag0
(g5222
g2
Ntp5237
Rp5238
(dp5239
g5226
I38
sg5227
I7
sbag0
(g5222
g2
Ntp5240
Rp5241
(dp5242
g5226
I38
sg5227
I9
sbag0
(g5222
g2
Ntp5243
Rp5244
(dp5245
g5226
I38
sg5227
I11
sbag0
(g5222
g2
Ntp5246
Rp5247
(dp5248
g5226
I38
sg5227
I13
sbag0
(g5222
g2
Ntp5249
Rp5250
(dp5251
g5226
I38
sg5227
I15
sbag0
(g5222
g2
Ntp5252
Rp5253
(dp5254
g5226
I38
sg5227
I17
sbag0
(g5222
g2
Ntp5255
Rp5256
(dp5257
g5226
I38
sg5227
I19
sbag0
(g5222
g2
Ntp5258
Rp5259
(dp5260
g5226
I38
sg5227
I21
sbag0
(g5222
g2
Ntp5261
Rp5262
(dp5263
g5226
I5
sg5227
I15
sbag0
(g5222
g2
Ntp5264
Rp5265
(dp5266
g5226
I7
sg5227
I15
sbag0
(g5222
g2
Ntp5267
Rp5268
(dp5269
g5226
I9
sg5227
I15
sbag0
(g44
g2
Ntp5270
Rp5271
(dp5272
g5226
I11
sg5227
I15
sbag0
(g44
g2
Ntp5273
Rp5274
(dp5275
g5226
I11
sg5227
I17
sbag0
(g44
g2
Ntp5276
Rp5277
(dp5278
g5226
I11
sg5227
I20
sbag0
(g44
g2
Ntp5279
Rp5280
(dp5281
g5226
I11
sg5227
I22
sbag0
(g5222
g2
Ntp5282
Rp5283
(dp5284
g5226
I11
sg5227
I21
sbag0
(g5222
g2
Ntp5285
Rp5286
(dp5287
g5226
I11
sg5227
I16
sbag0
(g5222
g2
Ntp5288
Rp5289
(dp5290
S'y'
p5291
I12
sS'x'
p5292
I20
sbag0
(g5222
g2
Ntp5293
Rp5294
(dp5295
g5291
I13
sg5292
I20
sbag0
(g44
g2
Ntp5296
Rp5297
(dp5298
g5291
I22
sg5292
I11
sbag0
(g44
g2
Ntp5299
Rp5300
(dp5301
g5291
I17
sg5292
I11
sbag0
(g44
g2
Ntp5302
Rp5303
(dp5304
g5291
I20
sg5292
I11
sbag0
(g5222
g2
Ntp5305
Rp5306
(dp5307
g5291
I18
sg5292
I11
sbag0
(g5222
g2
Ntp5308
Rp5309
(dp5310
g5291
I19
sg5292
I11
sbag0
(g5222
g2
Ntp5311
Rp5312
(dp5313
g5291
I16
sg5292
I11
sbag0
(g5222
g2
Ntp5314
Rp5315
(dp5316
g5291
I21
sg5292
I11
sbasS'links'
p5317
(dp5318
S'start'
p5319
(I19
I9
tp5320
sS'leveltwo'
p5321
(I77
I25
tp5322
ssS'w'
p5323
I80
sS'entities'
p5324
(lp5325
g0
(csrc.entities.prisoner
Prisoner
p5326
g2
Ntp5327
Rp5328
(dp5329
S'y'
p5330
I41
sS'x'
p5331
I7
sbag0
(g5326
g2
Ntp5332
Rp5333
(dp5334
g5330
I43
sg5331
I19
sbag0
(g5326
g2
Ntp5335
Rp5336
(dp5337
g5330
I40
sg5331
I14
sbag0
(csrc.entities.msgtrigger
MsgTrigger
p5338
g2
Ntp5339
Rp5340
(dp5341
S'y'
p5342
I14
sS'x'
p5343
I4
sS'message'
p5344
S"He's human but appears to be insane. Not much I could do for him."
p5345
sS'uuid'
p5346
L760201210535851L
sS'title'
p5347
S'Wizard says:'
p5348
sbag0
(g5338
g2
Ntp5349
Rp5350
(dp5351
g5342
I14
sg5343
I5
sg5344
g5345
sg5346
L760201210535851L
sg5347
g5348
sbag0
(g5338
g2
Ntp5352
Rp5353
(dp5354
g5342
I14
sg5343
I6
sg5344
g5345
sg5346
L760201210535851L
sg5347
g5348
sbag0
(g5338
g2
Ntp5355
Rp5356
(dp5357
g5342
I14
sg5343
I7
sg5344
g5345
sg5346
L760201210535851L
sg5347
g5348
sbag0
(g5338
g2
Ntp5358
Rp5359
(dp5360
g5342
I14
sg5343
I8
sg5344
g5345
sg5346
L760201210535851L
sg5347
g5348
sbag0
(g5338
g2
Ntp5361
Rp5362
(dp5363
g5342
I14
sg5343
I9
sg5344
g5345
sg5346
L760201210535851L
sg5347
g5348
sbag0
(g5338
g2
Ntp5364
Rp5365
(dp5366
g5342
I14
sg5343
I10
sg5344
g5345
sg5346
L760201210535851L
sg5347
g5348
sbag0
(g5338
g2
Ntp5367
Rp5368
(dp5369
g5342
I14
sg5343
I11
sg5344
g5345
sg5346
L760201210535851L
sg5347
g5348
sbag0
(g5338
g2
Ntp5370
Rp5371
(dp5372
g5342
I14
sg5343
I12
sg5344
g5345
sg5346
L760201210535851L
sg5347
g5348
sbag0
(g5338
g2
Ntp5373
Rp5374
(dp5375
g5342
I15
sg5343
I12
sg5344
g5345
sg5346
L760201210535851L
sg5347
g5348
sbag0
(g5338
g2
Ntp5376
Rp5377
(dp5378
g5342
I16
sg5343
I12
sg5344
g5345
sg5346
L760201210535851L
sg5347
g5348
sbag0
(g5338
g2
Ntp5379
Rp5380
(dp5381
g5342
I17
sg5343
I12
sg5344
g5345
sg5346
L760201210535851L
sg5347
g5348
sbag0
(g5338
g2
Ntp5382
Rp5383
(dp5384
g5342
I18
sg5343
I12
sg5344
g5345
sg5346
L760201210535851L
sg5347
g5348
sbag0
(g5338
g2
Ntp5385
Rp5386
(dp5387
g5342
I19
sg5343
I12
sg5344
g5345
sg5346
L760201210535851L
sg5347
g5348
sbag0
(g5338
g2
Ntp5388
Rp5389
(dp5390
g5342
I20
sg5343
I12
sg5344
g5345
sg5346
L760201210535851L
sg5347
g5348
sbag0
(g5338
g2
Ntp5391
Rp5392
(dp5393
g5342
I21
sg5343
I12
sg5344
g5345
sg5346
L760201210535851L
sg5347
g5348
sbag0
(g5338
g2
Ntp5394
Rp5395
(dp5396
g5342
I22
sg5343
I12
sg5344
g5345
sg5346
L760201210535851L
sg5347
g5348
sbag0
(g5326
g2
Ntp5397
Rp5398
(dp5399
g5342
I16
sg5343
I10
sbag0
(g5338
g2
Ntp5400
Rp5401
(dp5402
g5342
I24
sg5343
I18
sg5344
S"Herm, two robot guards. Without magic I wonder how I'll get past them."
p5403
sg5346
L735695642767900L
sg5347
S'Wizard says:'
p5404
sbag0
(g5338
g2
Ntp5405
Rp5406
(dp5407
g5342
I25
sg5343
I18
sg5344
g5403
sg5346
L735695642767900L
sg5347
g5404
sbag0
(g5338
g2
Ntp5408
Rp5409
(dp5410
g5342
I26
sg5343
I18
sg5344
g5403
sg5346
L735695642767900L
sg5347
g5404
sbag0
(g5338
g2
Ntp5411
Rp5412
(dp5413
g5342
I24
sg5343
I19
sg5344
g5403
sg5346
L735695642767900L
sg5347
g5404
sbag0
(g5338
g2
Ntp5414
Rp5415
(dp5416
g5342
I25
sg5343
I19
sg5344
g5403
sg5346
L735695642767900L
sg5347
g5404
sbag0
(g5338
g2
Ntp5417
Rp5418
(dp5419
g5342
I26
sg5343
I19
sg5344
g5403
sg5346
L735695642767900L
sg5347
g5404
sbag0
(g5338
g2
Ntp5420
Rp5421
(dp5422
g5342
I36
sg5343
I4
sg5344
S"Strange creatures make strange noises. You can tell they've been here a long time."
p5423
sg5346
L442419612088351L
sg5347
S'Wizard says:'
p5424
sbag0
(g5338
g2
Ntp5425
Rp5426
(dp5427
g5342
I37
sg5343
I4
sg5344
g5423
sg5346
L442419612088351L
sg5347
g5424
sbag0
(g5338
g2
Ntp5428
Rp5429
(dp5430
g5342
I36
sg5343
I5
sg5344
g5423
sg5346
L442419612088351L
sg5347
g5424
sbag0
(g5338
g2
Ntp5431
Rp5432
(dp5433
g5342
I37
sg5343
I5
sg5344
g5423
sg5346
L442419612088351L
sg5347
g5424
sbag0
(g5338
g2
Ntp5434
Rp5435
(dp5436
g5342
I36
sg5343
I6
sg5344
g5423
sg5346
L442419612088351L
sg5347
g5424
sbag0
(g5338
g2
Ntp5437
Rp5438
(dp5439
g5342
I37
sg5343
I6
sg5344
g5423
sg5346
L442419612088351L
sg5347
g5424
sbag0
(g5338
g2
Ntp5440
Rp5441
(dp5442
g5342
I36
sg5343
I7
sg5344
g5423
sg5346
L442419612088351L
sg5347
g5424
sbag0
(g5338
g2
Ntp5443
Rp5444
(dp5445
g5342
I37
sg5343
I7
sg5344
g5423
sg5346
L442419612088351L
sg5347
g5424
sbag0
(g5338
g2
Ntp5446
Rp5447
(dp5448
g5342
I36
sg5343
I8
sg5344
g5423
sg5346
L442419612088351L
sg5347
g5424
sbag0
(g5338
g2
Ntp5449
Rp5450
(dp5451
g5342
I37
sg5343
I8
sg5344
g5423
sg5346
L442419612088351L
sg5347
g5424
sbag0
(g5338
g2
Ntp5452
Rp5453
(dp5454
g5342
I36
sg5343
I9
sg5344
g5423
sg5346
L442419612088351L
sg5347
g5424
sbag0
(g5338
g2
Ntp5455
Rp5456
(dp5457
g5342
I37
sg5343
I9
sg5344
g5423
sg5346
L442419612088351L
sg5347
g5424
sbag0
(g5338
g2
Ntp5458
Rp5459
(dp5460
g5342
I36
sg5343
I10
sg5344
g5423
sg5346
L442419612088351L
sg5347
g5424
sbag0
(g5338
g2
Ntp5461
Rp5462
(dp5463
g5342
I37
sg5343
I10
sg5344
g5423
sg5346
L442419612088351L
sg5347
g5424
sbag0
(g5338
g2
Ntp5464
Rp5465
(dp5466
g5342
I36
sg5343
I11
sg5344
g5423
sg5346
L442419612088351L
sg5347
g5424
sbag0
(g5338
g2
Ntp5467
Rp5468
(dp5469
g5342
I37
sg5343
I11
sg5344
g5423
sg5346
L442419612088351L
sg5347
g5424
sbag0
(g5338
g2
Ntp5470
Rp5471
(dp5472
g5342
I36
sg5343
I12
sg5344
g5423
sg5346
L442419612088351L
sg5347
g5424
sbag0
(g5338
g2
Ntp5473
Rp5474
(dp5475
g5342
I37
sg5343
I12
sg5344
g5423
sg5346
L442419612088351L
sg5347
g5424
sbag0
(g5338
g2
Ntp5476
Rp5477
(dp5478
g5342
I36
sg5343
I13
sg5344
g5423
sg5346
L442419612088351L
sg5347
g5424
sbag0
(g5338
g2
Ntp5479
Rp5480
(dp5481
g5342
I37
sg5343
I13
sg5344
g5423
sg5346
L442419612088351L
sg5347
g5424
sbag0
(g5338
g2
Ntp5482
Rp5483
(dp5484
g5342
I36
sg5343
I14
sg5344
g5423
sg5346
L442419612088351L
sg5347
g5424
sbag0
(g5338
g2
Ntp5485
Rp5486
(dp5487
g5342
I37
sg5343
I14
sg5344
g5423
sg5346
L442419612088351L
sg5347
g5424
sbag0
(g5338
g2
Ntp5488
Rp5489
(dp5490
g5342
I36
sg5343
I15
sg5344
g5423
sg5346
L442419612088351L
sg5347
g5424
sbag0
(g5338
g2
Ntp5491
Rp5492
(dp5493
g5342
I37
sg5343
I15
sg5344
g5423
sg5346
L442419612088351L
sg5347
g5424
sbag0
(g5338
g2
Ntp5494
Rp5495
(dp5496
g5342
I36
sg5343
I16
sg5344
g5423
sg5346
L442419612088351L
sg5347
g5424
sbag0
(g5338
g2
Ntp5497
Rp5498
(dp5499
g5342
I37
sg5343
I16
sg5344
g5423
sg5346
L442419612088351L
sg5347
g5424
sbag0
(g5338
g2
Ntp5500
Rp5501
(dp5502
g5342
I36
sg5343
I17
sg5344
g5423
sg5346
L442419612088351L
sg5347
g5424
sbag0
(g5338
g2
Ntp5503
Rp5504
(dp5505
g5342
I37
sg5343
I17
sg5344
g5423
sg5346
L442419612088351L
sg5347
g5424
sbag0
(g5338
g2
Ntp5506
Rp5507
(dp5508
g5342
I36
sg5343
I18
sg5344
g5423
sg5346
L442419612088351L
sg5347
g5424
sbag0
(g5338
g2
Ntp5509
Rp5510
(dp5511
g5342
I37
sg5343
I18
sg5344
g5423
sg5346
L442419612088351L
sg5347
g5424
sbag0
(g5338
g2
Ntp5512
Rp5513
(dp5514
g5342
I36
sg5343
I19
sg5344
g5423
sg5346
L442419612088351L
sg5347
g5424
sbag0
(g5338
g2
Ntp5515
Rp5516
(dp5517
g5342
I37
sg5343
I19
sg5344
g5423
sg5346
L442419612088351L
sg5347
g5424
sbag0
(g5338
g2
Ntp5518
Rp5519
(dp5520
g5342
I36
sg5343
I20
sg5344
g5423
sg5346
L442419612088351L
sg5347
g5424
sbag0
(g5338
g2
Ntp5521
Rp5522
(dp5523
g5342
I37
sg5343
I20
sg5344
g5423
sg5346
L442419612088351L
sg5347
g5424
sbag0
(g5338
g2
Ntp5524
Rp5525
(dp5526
g5342
I36
sg5343
I21
sg5344
g5423
sg5346
L442419612088351L
sg5347
g5424
sbag0
(g5338
g2
Ntp5527
Rp5528
(dp5529
g5342
I37
sg5343
I21
sg5344
g5423
sg5346
L442419612088351L
sg5347
g5424
sbag0
(g5338
g2
Ntp5530
Rp5531
(dp5532
g5342
I36
sg5343
I22
sg5344
g5423
sg5346
L442419612088351L
sg5347
g5424
sbag0
(g5338
g2
Ntp5533
Rp5534
(dp5535
g5342
I37
sg5343
I22
sg5344
g5423
sg5346
L442419612088351L
sg5347
g5424
sbag0
(g5338
g2
Ntp5536
Rp5537
(dp5538
g5342
I24
sg5343
I46
sg5344
S'Can those bots really be so stupid? Their programming must be pretty basic.'
p5539
sg5346
L914198082229690L
sg5347
S'Wizard says:'
p5540
sbag0
(g5338
g2
Ntp5541
Rp5542
(dp5543
g5342
I25
sg5343
I46
sg5344
g5539
sg5346
L914198082229690L
sg5347
g5540
sbag0
(g5338
g2
Ntp5544
Rp5545
(dp5546
g5342
I26
sg5343
I46
sg5344
g5539
sg5346
L914198082229690L
sg5347
g5540
sbag0
(g5338
g2
Ntp5547
Rp5548
(dp5549
g5342
I24
sg5343
I74
sg5344
S'Aha, here are the stairs to the next floor. Lets get out of here.'
p5550
sg5346
L234500913747762L
sg5347
S'Wizard says:'
p5551
sbag0
(g5338
g2
Ntp5552
Rp5553
(dp5554
g5342
I25
sg5343
I74
sg5344
g5550
sg5346
L234500913747762L
sg5347
g5551
sbag0
(g5338
g2
Ntp5555
Rp5556
(dp5557
g5342
I26
sg5343
I74
sg5344
g5550
sg5346
L234500913747762L
sg5347
g5551
sbag0
(g5338
g2
Ntp5558
Rp5559
(dp5560
g5342
I24
sg5343
I75
sg5344
g5550
sg5346
L234500913747762L
sg5347
g5551
sbag0
(g5338
g2
Ntp5561
Rp5562
(dp5563
g5342
I25
sg5343
I75
sg5344
g5550
sg5346
L234500913747762L
sg5347
g5551
sbag0
(g5338
g2
Ntp5564
Rp5565
(dp5566
g5342
I26
sg5343
I75
sg5344
g5550
sg5346
L234500913747762L
sg5347
g5551
sbag0
(csrc.entities.robotguard
RobotGuard
p5567
g2
Ntp5568
Rp5569
(dp5570
S'y'
p5571
I26
sS'x'
p5572
I29
sS'uuid'
p5573
L876291931303223L
sbag0
(g5567
g2
Ntp5574
Rp5575
(dp5576
g5571
I24
sg5572
I29
sg5573
L913677384261030L
sbag0
(g5567
g2
Ntp5577
Rp5578
(dp5579
g5571
I19
sg5572
I39
sg5573
L585243315999122L
sbag0
(g5567
g2
Ntp5580
Rp5581
(dp5582
g5571
I31
sg5572
I39
sg5573
L945629901536202L
sbag0
(g5567
g2
Ntp5583
Rp5584
(dp5585
g5571
I21
sg5572
I66
sg5573
L186355494423305L
sbag0
(g5567
g2
Ntp5586
Rp5587
(dp5588
g5571
I29
sg5572
I66
sg5573
L964042588595850L
sbag0
(csrc.entities.door
Door
p5589
g2
Ntp5590
Rp5591
(dp5592
S'y'
p5593
I23
sS'x'
p5594
I18
sS'uuid'
p5595
L521604489820149L
sbag0
(g5589
g2
Ntp5596
Rp5597
(dp5598
g5593
I23
sg5594
I19
sg5595
L521604489820149L
sbag0
(g5589
g2
Ntp5599
Rp5600
(dp5601
g5593
I28
sg5594
I18
sg5595
L906701905259904L
sbag0
(g5589
g2
Ntp5602
Rp5603
(dp5604
g5593
I28
sg5594
I19
sg5595
L906701905259904L
sbag0
(g5589
g2
Ntp5605
Rp5606
(dp5607
g5593
I24
sg5594
I73
sg5595
L712947504091047L
sbag0
(g5589
g2
Ntp5608
Rp5609
(dp5610
g5593
I25
sg5594
I73
sg5595
L712947504091047L
sbag0
(g5589
g2
Ntp5611
Rp5612
(dp5613
g5593
I26
sg5594
I73
sg5595
L712947504091047L
sbasb.