ccopy_reg
_reconstructor
p0
(csrc.level
Level
p1
c__builtin__
object
p2
Ntp3
Rp4
(dp5
S'h'
p6
I50
sS'tiles'
p7
(lp8
g0
(csrc.entities.jailbars
Jailbars
p9
g2
Ntp10
Rp11
(dp12
S'y'
p13
I16
sS'x'
p14
I14
sbag0
(g9
g2
Ntp15
Rp16
(dp17
g13
I17
sg14
I14
sbag0
(g9
g2
Ntp18
Rp19
(dp20
g13
I18
sg14
I14
sbag0
(g9
g2
Ntp21
Rp22
(dp23
g13
I19
sg14
I14
sbag0
(g9
g2
Ntp24
Rp25
(dp26
g13
I20
sg14
I14
sbag0
(g9
g2
Ntp27
Rp28
(dp29
g13
I21
sg14
I14
sbag0
(g9
g2
Ntp30
Rp31
(dp32
g13
I22
sg14
I14
sbag0
(g9
g2
Ntp33
Rp34
(dp35
g13
I23
sg14
I14
sbag0
(g9
g2
Ntp36
Rp37
(dp38
g13
I24
sg14
I14
sbag0
(g9
g2
Ntp39
Rp40
(dp41
g13
I25
sg14
I14
sbag0
(g9
g2
Ntp42
Rp43
(dp44
g13
I26
sg14
I14
sbag0
(g9
g2
Ntp45
Rp46
(dp47
g13
I27
sg14
I14
sbag0
(g9
g2
Ntp48
Rp49
(dp50
g13
I28
sg14
I14
sbag0
(g9
g2
Ntp51
Rp52
(dp53
g13
I29
sg14
I14
sbag0
(g9
g2
Ntp54
Rp55
(dp56
g13
I17
sg14
I15
sbag0
(g9
g2
Ntp57
Rp58
(dp59
g13
I18
sg14
I15
sbag0
(g9
g2
Ntp60
Rp61
(dp62
g13
I19
sg14
I15
sbag0
(g9
g2
Ntp63
Rp64
(dp65
g13
I20
sg14
I15
sbag0
(g9
g2
Ntp66
Rp67
(dp68
g13
I21
sg14
I15
sbag0
(g9
g2
Ntp69
Rp70
(dp71
g13
I22
sg14
I15
sbag0
(g9
g2
Ntp72
Rp73
(dp74
g13
I23
sg14
I15
sbag0
(g9
g2
Ntp75
Rp76
(dp77
g13
I24
sg14
I15
sbag0
(g9
g2
Ntp78
Rp79
(dp80
g13
I25
sg14
I15
sbag0
(g9
g2
Ntp81
Rp82
(dp83
g13
I26
sg14
I15
sbag0
(g9
g2
Ntp84
Rp85
(dp86
g13
I27
sg14
I15
sbag0
(g9
g2
Ntp87
Rp88
(dp89
g13
I28
sg14
I15
sbag0
(g9
g2
Ntp90
Rp91
(dp92
g13
I29
sg14
I15
sbag0
(g9
g2
Ntp93
Rp94
(dp95
g13
I30
sg14
I15
sbag0
(g9
g2
Ntp96
Rp97
(dp98
g13
I29
sg14
I16
sbag0
(g9
g2
Ntp99
Rp100
(dp101
g13
I30
sg14
I16
sbag0
(g9
g2
Ntp102
Rp103
(dp104
g13
I29
sg14
I17
sbag0
(g9
g2
Ntp105
Rp106
(dp107
g13
I30
sg14
I17
sbag0
(g9
g2
Ntp108
Rp109
(dp110
g13
I29
sg14
I18
sbag0
(g9
g2
Ntp111
Rp112
(dp113
g13
I30
sg14
I18
sbag0
(g9
g2
Ntp114
Rp115
(dp116
g13
I29
sg14
I19
sbag0
(g9
g2
Ntp117
Rp118
(dp119
g13
I30
sg14
I19
sbag0
(g9
g2
Ntp120
Rp121
(dp122
g13
I29
sg14
I20
sbag0
(g9
g2
Ntp123
Rp124
(dp125
g13
I30
sg14
I20
sbag0
(g9
g2
Ntp126
Rp127
(dp128
g13
I29
sg14
I21
sbag0
(g9
g2
Ntp129
Rp130
(dp131
g13
I30
sg14
I21
sbag0
(g9
g2
Ntp132
Rp133
(dp134
g13
I29
sg14
I22
sbag0
(g9
g2
Ntp135
Rp136
(dp137
g13
I30
sg14
I22
sbag0
(g9
g2
Ntp138
Rp139
(dp140
g13
I29
sg14
I23
sbag0
(g9
g2
Ntp141
Rp142
(dp143
g13
I30
sg14
I23
sbag0
(g9
g2
Ntp144
Rp145
(dp146
g13
I16
sg14
I15
sbag0
(g9
g2
Ntp147
Rp148
(dp149
g13
I16
sg14
I16
sbag0
(g9
g2
Ntp150
Rp151
(dp152
g13
I16
sg14
I17
sbag0
(g9
g2
Ntp153
Rp154
(dp155
g13
I16
sg14
I18
sbag0
(g9
g2
Ntp156
Rp157
(dp158
g13
I16
sg14
I19
sbag0
(g9
g2
Ntp159
Rp160
(dp161
g13
I16
sg14
I20
sbag0
(g9
g2
Ntp162
Rp163
(dp164
g13
I16
sg14
I21
sbag0
(g9
g2
Ntp165
Rp166
(dp167
g13
I16
sg14
I22
sbag0
(g9
g2
Ntp168
Rp169
(dp170
g13
I17
sg14
I16
sbag0
(g9
g2
Ntp171
Rp172
(dp173
g13
I17
sg14
I17
sbag0
(g9
g2
Ntp174
Rp175
(dp176
g13
I17
sg14
I18
sbag0
(g9
g2
Ntp177
Rp178
(dp179
g13
I17
sg14
I19
sbag0
(g9
g2
Ntp180
Rp181
(dp182
g13
I17
sg14
I20
sbag0
(g9
g2
Ntp183
Rp184
(dp185
g13
I17
sg14
I21
sbag0
(g9
g2
Ntp186
Rp187
(dp188
g13
I17
sg14
I22
sbasS'links'
p189
(dp190
S'levelone'
p191
(I9
I22
tp192
ssS'w'
p193
I80
sS'entities'
p194
(lp195
g0
(csrc.entities.electricity
Electricity
p196
g2
Ntp197
Rp198
(dp199
S'y'
p200
I9
sS'x'
p201
I29
sbag0
(g196
g2
Ntp202
Rp203
(dp204
g200
I10
sg201
I29
sbag0
(g196
g2
Ntp205
Rp206
(dp207
g200
I11
sg201
I29
sbag0
(g196
g2
Ntp208
Rp209
(dp210
g200
I12
sg201
I29
sbag0
(g196
g2
Ntp211
Rp212
(dp213
g200
I13
sg201
I29
sbag0
(g196
g2
Ntp214
Rp215
(dp216
g200
I14
sg201
I29
sbag0
(g196
g2
Ntp217
Rp218
(dp219
g200
I15
sg201
I29
sbag0
(g196
g2
Ntp220
Rp221
(dp222
g200
I16
sg201
I29
sbag0
(g196
g2
Ntp223
Rp224
(dp225
g200
I17
sg201
I29
sbag0
(g196
g2
Ntp226
Rp227
(dp228
g200
I18
sg201
I29
sbag0
(g196
g2
Ntp229
Rp230
(dp231
g200
I19
sg201
I29
sbag0
(g196
g2
Ntp232
Rp233
(dp234
g200
I20
sg201
I29
sbag0
(g196
g2
Ntp235
Rp236
(dp237
g200
I21
sg201
I29
sbag0
(g196
g2
Ntp238
Rp239
(dp240
g200
I22
sg201
I29
sbag0
(g196
g2
Ntp241
Rp242
(dp243
g200
I23
sg201
I29
sbag0
(g196
g2
Ntp244
Rp245
(dp246
g200
I24
sg201
I29
sbag0
(g196
g2
Ntp247
Rp248
(dp249
g200
I25
sg201
I29
sbag0
(g196
g2
Ntp250
Rp251
(dp252
g200
I26
sg201
I29
sbag0
(g196
g2
Ntp253
Rp254
(dp255
g200
I27
sg201
I29
sbag0
(g196
g2
Ntp256
Rp257
(dp258
g200
I28
sg201
I29
sbag0
(g196
g2
Ntp259
Rp260
(dp261
g200
I29
sg201
I29
sbag0
(g196
g2
Ntp262
Rp263
(dp264
g200
I30
sg201
I29
sbag0
(g196
g2
Ntp265
Rp266
(dp267
g200
I31
sg201
I29
sbag0
(g196
g2
Ntp268
Rp269
(dp270
g200
I32
sg201
I29
sbag0
(g196
g2
Ntp271
Rp272
(dp273
g200
I33
sg201
I29
sbag0
(g196
g2
Ntp274
Rp275
(dp276
g200
I34
sg201
I29
sbag0
(g196
g2
Ntp277
Rp278
(dp279
g200
I35
sg201
I29
sbag0
(g196
g2
Ntp280
Rp281
(dp282
g200
I36
sg201
I29
sbag0
(g196
g2
Ntp283
Rp284
(dp285
g200
I37
sg201
I29
sbag0
(csrc.entities.robotguard
RobotGuard
p286
g2
Ntp287
Rp288
(dp289
S'y'
p290
I20
sS'x'
p291
I19
sbag0
(g286
g2
Ntp292
Rp293
(dp294
g290
I22
sg291
I19
sbag0
(g286
g2
Ntp295
Rp296
(dp297
g290
I23
sg291
I19
sbag0
(g286
g2
Ntp298
Rp299
(dp300
g290
I25
sg291
I19
sbasb.