ccopy_reg
_reconstructor
p0
(csrc.level
Level
p1
c__builtin__
object
p2
Ntp3
Rp4
(dp5
S'h'
p6
I50
sS'tiles'
p7
(lp8
sS'links'
p9
(dp10
S'levelone'
p11
(I9
I22
tp12
ssS'w'
p13
I80
sS'entities'
p14
(lp15
sb.